
busybox:     file format elf32-tradbigmips


Disassembly of section .init:

00404c60 <_init>:
  404c60:	3c1c0007 	lui	gp,0x7
  404c64:	279c85f0 	addiu	gp,gp,-31248
  404c68:	0399e021 	addu	gp,gp,t9
  404c6c:	27bdffe0 	addiu	sp,sp,-32
  404c70:	afbc0010 	sw	gp,16(sp)
  404c74:	afbf001c 	sw	ra,28(sp)
  404c78:	afbc0018 	sw	gp,24(sp)
  404c7c:	8fbf001c 	lw	ra,28(sp)
  404c80:	03e00008 	jr	ra
  404c84:	27bd0020 	addiu	sp,sp,32

Disassembly of section .text:

00404c90 <_ftext>:
  404c90:	3c1c0047 	lui	gp,0x47
  404c94:	27bdffe0 	addiu	sp,sp,-32
  404c98:	279cd250 	addiu	gp,gp,-11696
  404c9c:	afbf001c 	sw	ra,28(sp)
  404ca0:	afbc0010 	sw	gp,16(sp)
  404ca4:	00801021 	move	v0,a0
  404ca8:	00a03021 	move	a2,a1
  404cac:	10800008 	beqz	a0,404cd0 <_ftext+0x40>
  404cb0:	8f998030 	lw	t9,-32720(gp)
  404cb4:	80830000 	lb	v1,0(a0)
  404cb8:	10600006 	beqz	v1,404cd4 <_ftext+0x44>
  404cbc:	3c040045 	lui	a0,0x45
  404cc0:	3c040045 	lui	a0,0x45
  404cc4:	248413c0 	addiu	a0,a0,5056
  404cc8:	0320f809 	jalr	t9
  404ccc:	00402821 	move	a1,v0
  404cd0:	3c040045 	lui	a0,0x45
  404cd4:	2484f150 	addiu	a0,a0,-3760
  404cd8:	0320f809 	jalr	t9
  404cdc:	00c02821 	move	a1,a2
  404ce0:	3c1c0047 	lui	gp,0x47
  404ce4:	279cd250 	addiu	gp,gp,-11696
  404ce8:	27bdffe0 	addiu	sp,sp,-32
  404cec:	8f9983e4 	lw	t9,-31772(gp)
  404cf0:	3c020047 	lui	v0,0x47
  404cf4:	afbc0010 	sw	gp,16(sp)
  404cf8:	00002021 	move	a0,zero
  404cfc:	afbf001c 	sw	ra,28(sp)
  404d00:	ac408864 	sw	zero,-30620(v0)
  404d04:	0320f809 	jalr	t9
  404d08:	00000000 	nop
  404d0c:	3c020047 	lui	v0,0x47
  404d10:	80428b39 	lb	v0,-29895(v0)
  404d14:	8fbc0010 	lw	gp,16(sp)
  404d18:	10400014 	beqz	v0,404d6c <_ftext+0xdc>
  404d1c:	24040005 	li	a0,5
  404d20:	3c020047 	lui	v0,0x47
  404d24:	8c428bc0 	lw	v0,-29760(v0)
  404d28:	14400010 	bnez	v0,404d6c <_ftext+0xdc>
  404d2c:	3c020047 	lui	v0,0x47
  404d30:	8c428dbc 	lw	v0,-29252(v0)
  404d34:	10400004 	beqz	v0,404d48 <_ftext+0xb8>
  404d38:	3c020047 	lui	v0,0x47
  404d3c:	80428873 	lb	v0,-30605(v0)
  404d40:	1440000a 	bnez	v0,404d6c <_ftext+0xdc>
  404d44:	00002021 	move	a0,zero
  404d48:	8f9985fc 	lw	t9,-31236(gp)
  404d4c:	24040002 	li	a0,2
  404d50:	0320f809 	jalr	t9
  404d54:	00002821 	move	a1,zero
  404d58:	8fbc0010 	lw	gp,16(sp)
  404d5c:	8f9983cc 	lw	t9,-31796(gp)
  404d60:	0320f809 	jalr	t9
  404d64:	24040002 	li	a0,2
  404d68:	00002021 	move	a0,zero
  404d6c:	0c109a4d 	jal	426934 <QCAppSet+0xf364>
  404d70:	00000000 	nop
  404d74:	3c1c0047 	lui	gp,0x47
  404d78:	00a01021 	move	v0,a1
  404d7c:	24050002 	li	a1,2
  404d80:	10850007 	beq	a0,a1,404da0 <_ftext+0x110>
  404d84:	279cd250 	addiu	gp,gp,-11696
  404d88:	24050014 	li	a1,20
  404d8c:	10850004 	beq	a0,a1,404da0 <_ftext+0x110>
  404d90:	00000000 	nop
  404d94:	8f998804 	lw	t9,-30716(gp)
  404d98:	03200008 	jr	t9
  404d9c:	00000000 	nop
  404da0:	03e00008 	jr	ra
  404da4:	00000000 	nop
  404da8:	27bdffd8 	addiu	sp,sp,-40
  404dac:	afa5002c 	sw	a1,44(sp)
  404db0:	27a5002c 	addiu	a1,sp,44
  404db4:	afbf0024 	sw	ra,36(sp)
  404db8:	afa60030 	sw	a2,48(sp)
  404dbc:	afa70034 	sw	a3,52(sp)
  404dc0:	0c10a057 	jal	42815c <QCAppSet+0x10b8c>
  404dc4:	afa50018 	sw	a1,24(sp)
  404dc8:	8fbf0024 	lw	ra,36(sp)
  404dcc:	03e00008 	jr	ra
  404dd0:	27bd0028 	addiu	sp,sp,40
  404dd4:	3c1c0047 	lui	gp,0x47
  404dd8:	279cd250 	addiu	gp,gp,-11696
  404ddc:	27bdffc8 	addiu	sp,sp,-56
  404de0:	8f998410 	lw	t9,-31728(gp)
  404de4:	afb30024 	sw	s3,36(sp)
  404de8:	afb1001c 	sw	s1,28(sp)
  404dec:	afb00018 	sw	s0,24(sp)
  404df0:	afbc0010 	sw	gp,16(sp)
  404df4:	afbf0034 	sw	ra,52(sp)
  404df8:	afb60030 	sw	s6,48(sp)
  404dfc:	afb5002c 	sw	s5,44(sp)
  404e00:	afb40028 	sw	s4,40(sp)
  404e04:	afb20020 	sw	s2,32(sp)
  404e08:	00a08021 	move	s0,a1
  404e0c:	2405002f 	li	a1,47
  404e10:	00808821 	move	s1,a0
  404e14:	0320f809 	jalr	t9
  404e18:	00c09821 	move	s3,a2
  404e1c:	14400006 	bnez	v0,404e38 <_ftext+0x1a8>
  404e20:	8fbc0010 	lw	gp,16(sp)
  404e24:	8f998070 	lw	t9,-32656(gp)
  404e28:	04110139 	bal	405310 <find_applet_by_name>
  404e2c:	02202021 	move	a0,s1
  404e30:	1440004d 	bnez	v0,404f68 <_ftext+0x2d8>
  404e34:	8fbc0010 	lw	gp,16(sp)
  404e38:	081013a9 	j	404ea4 <_ftext+0x214>
  404e3c:	00009021 	move	s2,zero
  404e40:	8c430000 	lw	v1,0(v0)
  404e44:	5460fffe 	bnezl	v1,404e40 <_ftext+0x1b0>
  404e48:	24420004 	addiu	v0,v0,4
  404e4c:	00502023 	subu	a0,v0,s0
  404e50:	00042083 	sra	a0,a0,0x2
  404e54:	8f998020 	lw	t9,-32736(gp)
  404e58:	24840002 	addiu	a0,a0,2
  404e5c:	00042080 	sll	a0,a0,0x2
  404e60:	0320f809 	jalr	t9
  404e64:	3c110045 	lui	s1,0x45
  404e68:	26230e4c 	addiu	v1,s1,3660
  404e6c:	8fbc0010 	lw	gp,16(sp)
  404e70:	ac430000 	sw	v1,0(v0)
  404e74:	24430004 	addiu	v1,v0,4
  404e78:	8e040000 	lw	a0,0(s0)
  404e7c:	26100004 	addiu	s0,s0,4
  404e80:	ac640000 	sw	a0,0(v1)
  404e84:	1480fffc 	bnez	a0,404e78 <_ftext+0x1e8>
  404e88:	24630004 	addiu	v1,v1,4
  404e8c:	00408021 	move	s0,v0
  404e90:	081013a8 	j	404ea0 <_ftext+0x210>
  404e94:	24120001 	li	s2,1
  404e98:	00009021 	move	s2,zero
  404e9c:	3c110045 	lui	s1,0x45
  404ea0:	26310e4c 	addiu	s1,s1,3660
  404ea4:	8f948078 	lw	s4,-32648(gp)
  404ea8:	3c160047 	lui	s6,0x47
  404eac:	24150008 	li	s5,8
  404eb0:	8f99879c 	lw	t9,-30820(gp)
  404eb4:	02202021 	move	a0,s1
  404eb8:	02002821 	move	a1,s0
  404ebc:	0320f809 	jalr	t9
  404ec0:	02603021 	move	a2,s3
  404ec4:	1240000d 	beqz	s2,404efc <_ftext+0x26c>
  404ec8:	8fbc0010 	lw	gp,16(sp)
  404ecc:	8f9983c8 	lw	t9,-31800(gp)
  404ed0:	02002021 	move	a0,s0
  404ed4:	8fbf0034 	lw	ra,52(sp)
  404ed8:	8fb60030 	lw	s6,48(sp)
  404edc:	8fb5002c 	lw	s5,44(sp)
  404ee0:	8fb40028 	lw	s4,40(sp)
  404ee4:	8fb30024 	lw	s3,36(sp)
  404ee8:	8fb20020 	lw	s2,32(sp)
  404eec:	8fb1001c 	lw	s1,28(sp)
  404ef0:	8fb00018 	lw	s0,24(sp)
  404ef4:	03200008 	jr	t9
  404ef8:	27bd0038 	addiu	sp,sp,56
  404efc:	8ec28f4c 	lw	v0,-28852(s6)
  404f00:	8c420000 	lw	v0,0(v0)
  404f04:	14550022 	bne	v0,s5,404f90 <_ftext+0x300>
  404f08:	02001021 	move	v0,s0
  404f0c:	8c430000 	lw	v1,0(v0)
  404f10:	5460fffe 	bnezl	v1,404f0c <_ftext+0x27c>
  404f14:	24420004 	addiu	v0,v0,4
  404f18:	00502023 	subu	a0,v0,s0
  404f1c:	00042083 	sra	a0,a0,0x2
  404f20:	24840002 	addiu	a0,a0,2
  404f24:	0c10a09d 	jal	428274 <QCAppSet+0x10ca4>
  404f28:	00042080 	sll	a0,a0,0x2
  404f2c:	8fbc0010 	lw	gp,16(sp)
  404f30:	ac510004 	sw	s1,4(v0)
  404f34:	8e910000 	lw	s1,0(s4)
  404f38:	00001821 	move	v1,zero
  404f3c:	26310001 	addiu	s1,s1,1
  404f40:	ac510000 	sw	s1,0(v0)
  404f44:	02032021 	addu	a0,s0,v1
  404f48:	8c840004 	lw	a0,4(a0)
  404f4c:	00432821 	addu	a1,v0,v1
  404f50:	aca40008 	sw	a0,8(a1)
  404f54:	1480fffb 	bnez	a0,404f44 <_ftext+0x2b4>
  404f58:	24630004 	addiu	v1,v1,4
  404f5c:	24120001 	li	s2,1
  404f60:	081013ac 	j	404eb0 <_ftext+0x220>
  404f64:	00408021 	move	s0,v0
  404f68:	8f9984f0 	lw	t9,-31504(gp)
  404f6c:	3c050044 	lui	a1,0x44
  404f70:	ae110000 	sw	s1,0(s0)
  404f74:	02202021 	move	a0,s1
  404f78:	0320f809 	jalr	t9
  404f7c:	24a57f9c 	addiu	a1,a1,32668
  404f80:	1040ffc5 	beqz	v0,404e98 <_ftext+0x208>
  404f84:	8fbc0010 	lw	gp,16(sp)
  404f88:	08101390 	j	404e40 <_ftext+0x1b0>
  404f8c:	02001021 	move	v0,s0
  404f90:	8fbf0034 	lw	ra,52(sp)
  404f94:	8fb60030 	lw	s6,48(sp)
  404f98:	8fb5002c 	lw	s5,44(sp)
  404f9c:	8fb40028 	lw	s4,40(sp)
  404fa0:	8fb30024 	lw	s3,36(sp)
  404fa4:	8fb20020 	lw	s2,32(sp)
  404fa8:	8fb1001c 	lw	s1,28(sp)
  404fac:	8fb00018 	lw	s0,24(sp)
  404fb0:	03e00008 	jr	ra
  404fb4:	27bd0038 	addiu	sp,sp,56
  404fb8:	27bdffd8 	addiu	sp,sp,-40
  404fbc:	27a20030 	addiu	v0,sp,48
  404fc0:	afb00020 	sw	s0,32(sp)
  404fc4:	00808021 	move	s0,a0
  404fc8:	00a02021 	move	a0,a1
  404fcc:	00402821 	move	a1,v0
  404fd0:	afbf0024 	sw	ra,36(sp)
  404fd4:	afa60030 	sw	a2,48(sp)
  404fd8:	afa70034 	sw	a3,52(sp)
  404fdc:	0c10a057 	jal	42815c <QCAppSet+0x10b8c>
  404fe0:	afa20018 	sw	v0,24(sp)
  404fe4:	0c109b96 	jal	426e58 <QCAppSet+0xf888>
  404fe8:	00000000 	nop
  404fec:	0c109a4d 	jal	426934 <QCAppSet+0xf364>
  404ff0:	02002021 	move	a0,s0
  404ff4:	3c1c0047 	lui	gp,0x47
  404ff8:	27bdffc0 	addiu	sp,sp,-64
  404ffc:	279cd250 	addiu	gp,gp,-11696
  405000:	afb3002c 	sw	s3,44(sp)
  405004:	afb20028 	sw	s2,40(sp)
  405008:	afb10024 	sw	s1,36(sp)
  40500c:	afb00020 	sw	s0,32(sp)
  405010:	afbf003c 	sw	ra,60(sp)
  405014:	afb60038 	sw	s6,56(sp)
  405018:	afb50034 	sw	s5,52(sp)
  40501c:	afb40030 	sw	s4,48(sp)
  405020:	afbc0010 	sw	gp,16(sp)
  405024:	00808821 	move	s1,a0
  405028:	afa50044 	sw	a1,68(sp)
  40502c:	00c09021 	move	s2,a2
  405030:	3c130047 	lui	s3,0x47
  405034:	3c100047 	lui	s0,0x47
  405038:	8e028f54 	lw	v0,-28844(s0)
  40503c:	ae608f50 	sw	zero,-28848(s3)
  405040:	10400005 	beqz	v0,405058 <_ftext+0x3c8>
  405044:	24040001 	li	a0,1
  405048:	0c10a2a0 	jal	428a80 <QCAppSet+0x114b0>
  40504c:	00000000 	nop
  405050:	0810140f 	j	40503c <_ftext+0x3ac>
  405054:	8e028f54 	lw	v0,-28844(s0)
  405058:	24050020 	li	a1,32
  40505c:	0c10a9f6 	jal	42a7d8 <QCAppSet+0x13208>
  405060:	00003021 	move	a2,zero
  405064:	8fbc0010 	lw	gp,16(sp)
  405068:	8e300000 	lw	s0,0(s1)
  40506c:	8f998410 	lw	t9,-31728(gp)
  405070:	02002021 	move	a0,s0
  405074:	2405002f 	li	a1,47
  405078:	0320f809 	jalr	t9
  40507c:	00409821 	move	s3,v0
  405080:	14400006 	bnez	v0,40509c <_ftext+0x40c>
  405084:	8fbc0010 	lw	gp,16(sp)
  405088:	8f998070 	lw	t9,-32656(gp)
  40508c:	041100a0 	bal	405310 <find_applet_by_name>
  405090:	02002021 	move	a0,s0
  405094:	5040001b 	beqzl	v0,405104 <_ftext+0x474>
  405098:	24100002 	li	s0,2
  40509c:	8e240000 	lw	a0,0(s1)
  4050a0:	02202821 	move	a1,s1
  4050a4:	0c101375 	jal	404dd4 <_ftext+0x144>
  4050a8:	02603021 	move	a2,s3
  4050ac:	3c020047 	lui	v0,0x47
  4050b0:	8c428f4c 	lw	v0,-28852(v0)
  4050b4:	08101449 	j	405124 <_ftext+0x494>
  4050b8:	8c500000 	lw	s0,0(v0)
  4050bc:	0641000d 	bgez	s2,4050f4 <_ftext+0x464>
  4050c0:	8ec38f64 	lw	v1,-28828(s6)
  4050c4:	1460000b 	bnez	v1,4050f4 <_ftext+0x464>
  4050c8:	00402021 	move	a0,v0
  4050cc:	02202821 	move	a1,s1
  4050d0:	02603021 	move	a2,s3
  4050d4:	0c101375 	jal	404dd4 <_ftext+0x144>
  4050d8:	afa20018 	sw	v0,24(sp)
  4050dc:	8ea38f4c 	lw	v1,-28852(s5)
  4050e0:	8c630000 	lw	v1,0(v1)
  4050e4:	10740003 	beq	v1,s4,4050f4 <_ftext+0x464>
  4050e8:	8fa20018 	lw	v0,24(sp)
  4050ec:	38640014 	xori	a0,v1,0x14
  4050f0:	0064800b 	movn	s0,v1,a0
  4050f4:	0c1097a7 	jal	425e9c <QCAppSet+0xe8cc>
  4050f8:	00402021 	move	a0,v0
  4050fc:	08101445 	j	405114 <_ftext+0x484>
  405100:	8e250000 	lw	a1,0(s1)
  405104:	3c160047 	lui	s6,0x47
  405108:	3c150047 	lui	s5,0x47
  40510c:	24140002 	li	s4,2
  405110:	8e250000 	lw	a1,0(s1)
  405114:	0c10aac1 	jal	42ab04 <QCAppSet+0x13534>
  405118:	27a40044 	addiu	a0,sp,68
  40511c:	5440ffe7 	bnezl	v0,4050bc <_ftext+0x42c>
  405120:	2652ffff 	addiu	s2,s2,-1
  405124:	24030002 	li	v1,2
  405128:	12030006 	beq	s0,v1,405144 <_ftext+0x4b4>
  40512c:	3c020047 	lui	v0,0x47
  405130:	2404000d 	li	a0,13
  405134:	52040004 	beql	s0,a0,405148 <_ftext+0x4b8>
  405138:	2403007e 	li	v1,126
  40513c:	08101453 	j	40514c <_ftext+0x4bc>
  405140:	8e260000 	lw	a2,0(s1)
  405144:	2403007f 	li	v1,127
  405148:	8e260000 	lw	a2,0(s1)
  40514c:	3c050045 	lui	a1,0x45
  405150:	02002021 	move	a0,s0
  405154:	24a50bc8 	addiu	a1,a1,3016
  405158:	afa60018 	sw	a2,24(sp)
  40515c:	0c10135d 	jal	404d74 <_ftext+0xe4>
  405160:	ac438f9c 	sw	v1,-28772(v0)
  405164:	3c050045 	lui	a1,0x45
  405168:	8fa60018 	lw	a2,24(sp)
  40516c:	24040003 	li	a0,3
  405170:	24a513c0 	addiu	a1,a1,5056
  405174:	0c1013ee 	jal	404fb8 <_ftext+0x328>
  405178:	00403821 	move	a3,v0

0040517c <main>:
  40517c:	3c1c0047 	lui	gp,0x47
  405180:	279cd250 	addiu	gp,gp,-11696
  405184:	8ca30000 	lw	v1,0(a1)
  405188:	00801021 	move	v0,a0
  40518c:	8f848024 	lw	a0,-32732(gp)
  405190:	27bdffe0 	addiu	sp,sp,-32
  405194:	afbf001c 	sw	ra,28(sp)
  405198:	afbc0010 	sw	gp,16(sp)
  40519c:	ac830000 	sw	v1,0(a0)
  4051a0:	80670000 	lb	a3,0(v1)
  4051a4:	00a03021 	move	a2,a1
  4051a8:	2405002d 	li	a1,45
  4051ac:	54e50004 	bnel	a3,a1,4051c0 <main+0x44>
  4051b0:	8c830000 	lw	v1,0(a0)
  4051b4:	24630001 	addiu	v1,v1,1
  4051b8:	ac830000 	sw	v1,0(a0)
  4051bc:	8c830000 	lw	v1,0(a0)
  4051c0:	2407002f 	li	a3,47
  4051c4:	08101476 	j	4051d8 <main+0x5c>
  4051c8:	8f858024 	lw	a1,-32732(gp)
  4051cc:	14870002 	bne	a0,a3,4051d8 <main+0x5c>
  4051d0:	24630001 	addiu	v1,v1,1
  4051d4:	aca30000 	sw	v1,0(a1)
  4051d8:	80640000 	lb	a0,0(v1)
  4051dc:	1480fffb 	bnez	a0,4051cc <main+0x50>
  4051e0:	8f99807c 	lw	t9,-32644(gp)
  4051e4:	8f838024 	lw	v1,-32732(gp)
  4051e8:	8c640000 	lw	a0,0(v1)
  4051ec:	04110185 	bal	405804 <run_applet_by_name>
  4051f0:	00402821 	move	a1,v0
  4051f4:	8fbc0010 	lw	gp,16(sp)
  4051f8:	3c040045 	lui	a0,0x45
  4051fc:	8f998030 	lw	t9,-32720(gp)
  405200:	0320f809 	jalr	t9
  405204:	2484b8d0 	addiu	a0,a0,-18224
	...
  405210:	3c1c0047 	lui	gp,0x47
  405214:	279cd250 	addiu	gp,gp,-11696
  405218:	8f9984f0 	lw	t9,-31504(gp)
  40521c:	03200008 	jr	t9
  405220:	8ca50000 	lw	a1,0(a1)
  405224:	3c1c0047 	lui	gp,0x47
  405228:	279cd250 	addiu	gp,gp,-11696
  40522c:	8f8287bc 	lw	v0,-30788(gp)
  405230:	08101495 	j	405254 <main+0xd8>
  405234:	8c420000 	lw	v0,0(v0)
  405238:	8066ffff 	lb	a2,-1(v1)
  40523c:	00063040 	sll	a2,a2,0x1
  405240:	00463021 	addu	a2,v0,a2
  405244:	94c60000 	lhu	a2,0(a2)
  405248:	30c60020 	andi	a2,a2,0x20
  40524c:	10c00004 	beqz	a2,405260 <main+0xe4>
  405250:	24a5ffff 	addiu	a1,a1,-1
  405254:	0085302b 	sltu	a2,a0,a1
  405258:	14c0fff7 	bnez	a2,405238 <main+0xbc>
  40525c:	00a01821 	move	v1,a1
  405260:	8f998018 	lw	t9,-32744(gp)
  405264:	03200008 	jr	t9
  405268:	a0600000 	sb	zero,0(v1)

0040526c <bb_show_usage>:
  40526c:	3c020046 	lui	v0,0x46
  405270:	8c465b00 	lw	a2,23296(v0)
  405274:	3c030046 	lui	v1,0x46
  405278:	24634824 	addiu	v1,v1,18468
  40527c:	00c31823 	subu	v1,a2,v1
  405280:	3c02aaaa 	lui	v0,0xaaaa
  405284:	3442aaab 	ori	v0,v0,0xaaab
  405288:	3c1c0047 	lui	gp,0x47
  40528c:	00031883 	sra	v1,v1,0x2
  405290:	27bdffd8 	addiu	sp,sp,-40
  405294:	279cd250 	addiu	gp,gp,-11696
  405298:	70621802 	mul	v1,v1,v0
  40529c:	3c020045 	lui	v0,0x45
  4052a0:	afbf0024 	sw	ra,36(sp)
  4052a4:	afbc0018 	sw	gp,24(sp)
  4052a8:	081014af 	j	4052bc <bb_show_usage+0x50>
  4052ac:	24428214 	addiu	v0,v0,-32236
  4052b0:	2c840001 	sltiu	a0,a0,1
  4052b4:	24420001 	addiu	v0,v0,1
  4052b8:	00641823 	subu	v1,v1,a0
  4052bc:	1c60fffc 	bgtz	v1,4052b0 <bb_show_usage+0x44>
  4052c0:	80440000 	lb	a0,0(v0)
  4052c4:	24030008 	li	v1,8
  4052c8:	10830003 	beq	a0,v1,4052d8 <bb_show_usage+0x6c>
  4052cc:	3c050044 	lui	a1,0x44
  4052d0:	081014b8 	j	4052e0 <bb_show_usage+0x74>
  4052d4:	24a57ee0 	addiu	a1,a1,32480
  4052d8:	3c050044 	lui	a1,0x44
  4052dc:	24a57ef4 	addiu	a1,a1,32500
  4052e0:	8f8384ac 	lw	v1,-31572(gp)
  4052e4:	8cc70000 	lw	a3,0(a2)
  4052e8:	8c640000 	lw	a0,0(v1)
  4052ec:	afa20010 	sw	v0,16(sp)
  4052f0:	8f82801c 	lw	v0,-32740(gp)
  4052f4:	8f998678 	lw	t9,-31112(gp)
  4052f8:	0320f809 	jalr	t9
  4052fc:	8c460000 	lw	a2,0(v0)
  405300:	8fbc0018 	lw	gp,24(sp)
  405304:	8f998458 	lw	t9,-31656(gp)
  405308:	0320f809 	jalr	t9
  40530c:	24040001 	li	a0,1

00405310 <find_applet_by_name>:
  405310:	3c1c0047 	lui	gp,0x47
  405314:	279cd250 	addiu	gp,gp,-11696
  405318:	3c020040 	lui	v0,0x40
  40531c:	27bdffd8 	addiu	sp,sp,-40
  405320:	8f9987a0 	lw	t9,-30816(gp)
  405324:	24425210 	addiu	v0,v0,21008
  405328:	3c050046 	lui	a1,0x46
  40532c:	afbf0024 	sw	ra,36(sp)
  405330:	afbc0018 	sw	gp,24(sp)
  405334:	afa20010 	sw	v0,16(sp)
  405338:	24a54824 	addiu	a1,a1,18468
  40533c:	24060038 	li	a2,56
  405340:	0320f809 	jalr	t9
  405344:	2407000c 	li	a3,12
  405348:	8fbf0024 	lw	ra,36(sp)
  40534c:	03e00008 	jr	ra
  405350:	27bd0028 	addiu	sp,sp,40
  405354:	3c1c0047 	lui	gp,0x47
  405358:	27bdfe08 	addiu	sp,sp,-504
  40535c:	279cd250 	addiu	gp,gp,-11696
  405360:	8f9987f0 	lw	t9,-30736(gp)
  405364:	afb601e8 	sw	s6,488(sp)
  405368:	3c160045 	lui	s6,0x45
  40536c:	afbc0018 	sw	gp,24(sp)
  405370:	afbf01f4 	sw	ra,500(sp)
  405374:	afbe01f0 	sw	s8,496(sp)
  405378:	afb701ec 	sw	s7,492(sp)
  40537c:	afb501e4 	sw	s5,484(sp)
  405380:	afb401e0 	sw	s4,480(sp)
  405384:	afb301dc 	sw	s3,476(sp)
  405388:	afb201d8 	sw	s2,472(sp)
  40538c:	afb101d4 	sw	s1,468(sp)
  405390:	afb001d0 	sw	s0,464(sp)
  405394:	26c4b894 	addiu	a0,s6,-18284
  405398:	0320f809 	jalr	t9
  40539c:	27a50028 	addiu	a1,sp,40
  4053a0:	1440010c 	bnez	v0,4057d4 <find_applet_by_name+0x4c4>
  4053a4:	8fbc0018 	lw	gp,24(sp)
  4053a8:	8fa20040 	lw	v0,64(sp)
  4053ac:	34038000 	li	v1,0x8000
  4053b0:	3044f000 	andi	a0,v0,0xf000
  4053b4:	14830108 	bne	a0,v1,4057d8 <find_applet_by_name+0x4c8>
  4053b8:	8fbf01f4 	lw	ra,500(sp)
  4053bc:	8fa30048 	lw	v1,72(sp)
  4053c0:	14600105 	bnez	v1,4057d8 <find_applet_by_name+0x4c8>
  4053c4:	30420012 	andi	v0,v0,0x12
  4053c8:	14400104 	bnez	v0,4057dc <find_applet_by_name+0x4cc>
  4053cc:	8fbe01f0 	lw	s8,496(sp)
  4053d0:	8f9983bc 	lw	t9,-31812(gp)
  4053d4:	3c050045 	lui	a1,0x45
  4053d8:	26c4b894 	addiu	a0,s6,-18284
  4053dc:	0320f809 	jalr	t9
  4053e0:	24a5cc78 	addiu	a1,a1,-13192
  4053e4:	00408821 	move	s1,v0
  4053e8:	104000fa 	beqz	v0,4057d4 <find_applet_by_name+0x4c4>
  4053ec:	8fbc0018 	lw	gp,24(sp)
  4053f0:	24030001 	li	v1,1
  4053f4:	3c020046 	lui	v0,0x46
  4053f8:	3c170045 	lui	s7,0x45
  4053fc:	ac435b08 	sw	v1,23304(v0)
  405400:	00009821 	move	s3,zero
  405404:	0000a021 	move	s4,zero
  405408:	00008021 	move	s0,zero
  40540c:	26f7b8a8 	addiu	s7,s7,-18264
  405410:	3c1e0044 	lui	s8,0x44
  405414:	8f998780 	lw	t9,-30848(gp)
  405418:	27a400c8 	addiu	a0,sp,200
  40541c:	24050100 	li	a1,256
  405420:	0320f809 	jalr	t9
  405424:	02203021 	move	a2,s1
  405428:	1440000c 	bnez	v0,40545c <find_applet_by_name+0x14c>
  40542c:	8fbc0018 	lw	gp,24(sp)
  405430:	8f99860c 	lw	t9,-31220(gp)
  405434:	0320f809 	jalr	t9
  405438:	02202021 	move	a0,s1
  40543c:	144000b4 	bnez	v0,405710 <find_applet_by_name+0x400>
  405440:	8fbc0018 	lw	gp,24(sp)
  405444:	8f99852c 	lw	t9,-31444(gp)
  405448:	0320f809 	jalr	t9
  40544c:	02202021 	move	a0,s1
  405450:	3c020046 	lui	v0,0x46
  405454:	081015f5 	j	4057d4 <find_applet_by_name+0x4c4>
  405458:	ac505b0c 	sw	s0,23308(v0)
  40545c:	8f998410 	lw	t9,-31728(gp)
  405460:	27a400c8 	addiu	a0,sp,200
  405464:	0320f809 	jalr	t9
  405468:	2405000a 	li	a1,10
  40546c:	26940001 	addiu	s4,s4,1
  405470:	14400006 	bnez	v0,40548c <find_applet_by_name+0x17c>
  405474:	8fbc0018 	lw	gp,24(sp)
  405478:	8f998744 	lw	t9,-30908(gp)
  40547c:	0320f809 	jalr	t9
  405480:	02202021 	move	a0,s1
  405484:	104000a5 	beqz	v0,40571c <find_applet_by_name+0x40c>
  405488:	8fbc0018 	lw	gp,24(sp)
  40548c:	8f9983f4 	lw	t9,-31756(gp)
  405490:	27a400c8 	addiu	a0,sp,200
  405494:	0320f809 	jalr	t9
  405498:	24050023 	li	a1,35
  40549c:	00402821 	move	a1,v0
  4054a0:	0c101489 	jal	405224 <main+0xa8>
  4054a4:	27a400c8 	addiu	a0,sp,200
  4054a8:	00409021 	move	s2,v0
  4054ac:	80420000 	lb	v0,0(v0)
  4054b0:	1040ffd8 	beqz	v0,405414 <find_applet_by_name+0x104>
  4054b4:	8fbc0018 	lw	gp,24(sp)
  4054b8:	2403005b 	li	v1,91
  4054bc:	14430019 	bne	v0,v1,405524 <find_applet_by_name+0x214>
  4054c0:	24020001 	li	v0,1
  4054c4:	8f998410 	lw	t9,-31728(gp)
  4054c8:	02402021 	move	a0,s2
  4054cc:	0320f809 	jalr	t9
  4054d0:	2405005d 	li	a1,93
  4054d4:	10400094 	beqz	v0,405728 <find_applet_by_name+0x418>
  4054d8:	8fbc0018 	lw	gp,24(sp)
  4054dc:	80430001 	lb	v1,1(v0)
  4054e0:	54600092 	bnezl	v1,40572c <find_applet_by_name+0x41c>
  4054e4:	3c020044 	lui	v0,0x44
  4054e8:	26440001 	addiu	a0,s2,1
  4054ec:	0c101489 	jal	405224 <main+0xa8>
  4054f0:	00402821 	move	a1,v0
  4054f4:	80430000 	lb	v1,0(v0)
  4054f8:	1060008b 	beqz	v1,405728 <find_applet_by_name+0x418>
  4054fc:	8fbc0018 	lw	gp,24(sp)
  405500:	8f9985c0 	lw	t9,-31296(gp)
  405504:	00402021 	move	a0,v0
  405508:	0320f809 	jalr	t9
  40550c:	27c57f6c 	addiu	a1,s8,32620
  405510:	24130001 	li	s3,1
  405514:	2403ffff 	li	v1,-1
  405518:	8fbc0018 	lw	gp,24(sp)
  40551c:	08101505 	j	405414 <find_applet_by_name+0x104>
  405520:	0062980b 	movn	s3,v1,v0
  405524:	16620075 	bne	s3,v0,4056fc <find_applet_by_name+0x3ec>
  405528:	8f998410 	lw	t9,-31728(gp)
  40552c:	02402021 	move	a0,s2
  405530:	0320f809 	jalr	t9
  405534:	2405003d 	li	a1,61
  405538:	0040a821 	move	s5,v0
  40553c:	1040007d 	beqz	v0,405734 <find_applet_by_name+0x424>
  405540:	8fbc0018 	lw	gp,24(sp)
  405544:	02402021 	move	a0,s2
  405548:	0c101489 	jal	405224 <main+0xa8>
  40554c:	00402821 	move	a1,v0
  405550:	80430000 	lb	v1,0(v0)
  405554:	10600077 	beqz	v1,405734 <find_applet_by_name+0x424>
  405558:	8fbc0018 	lw	gp,24(sp)
  40555c:	0c1014c4 	jal	405310 <find_applet_by_name>
  405560:	00402021 	move	a0,v0
  405564:	1040ffab 	beqz	v0,405414 <find_applet_by_name+0x104>
  405568:	8fbc0018 	lw	gp,24(sp)
  40556c:	8f998020 	lw	t9,-32736(gp)
  405570:	24040014 	li	a0,20
  405574:	0320f809 	jalr	t9
  405578:	afa201cc 	sw	v0,460(sp)
  40557c:	8fbc0018 	lw	gp,24(sp)
  405580:	8fa301cc 	lw	v1,460(sp)
  405584:	8f998018 	lw	t9,-32744(gp)
  405588:	ac430000 	sw	v1,0(v0)
  40558c:	ac500010 	sw	s0,16(v0)
  405590:	26a40001 	addiu	a0,s5,1
  405594:	ac40000c 	sw	zero,12(v0)
  405598:	0320f809 	jalr	t9
  40559c:	00409021 	move	s2,v0
  4055a0:	8fbc0018 	lw	gp,24(sp)
  4055a4:	0040a821 	move	s5,v0
  4055a8:	00008021 	move	s0,zero
  4055ac:	24060005 	li	a2,5
  4055b0:	24030003 	li	v1,3
  4055b4:	72061002 	mul	v0,s0,a2
  4055b8:	82a50000 	lb	a1,0(s5)
  4055bc:	8f9983f4 	lw	t9,-31756(gp)
  4055c0:	00572021 	addu	a0,v0,s7
  4055c4:	afa301cc 	sw	v1,460(sp)
  4055c8:	0320f809 	jalr	t9
  4055cc:	afa601c8 	sw	a2,456(sp)
  4055d0:	80440000 	lb	a0,0(v0)
  4055d4:	8fbc0018 	lw	gp,24(sp)
  4055d8:	8fa301cc 	lw	v1,460(sp)
  4055dc:	10800058 	beqz	a0,405740 <find_applet_by_name+0x430>
  4055e0:	8fa601c8 	lw	a2,456(sp)
  4055e4:	00571023 	subu	v0,v0,s7
  4055e8:	00501023 	subu	v0,v0,s0
  4055ec:	3c040045 	lui	a0,0x45
  4055f0:	2484b8b8 	addiu	a0,a0,-18248
  4055f4:	00021040 	sll	v0,v0,0x1
  4055f8:	00441021 	addu	v0,v0,a0
  4055fc:	94420000 	lhu	v0,0(v0)
  405600:	8e44000c 	lw	a0,12(s2)
  405604:	26100001 	addiu	s0,s0,1
  405608:	00821025 	or	v0,a0,v0
  40560c:	26b50001 	addiu	s5,s5,1
  405610:	1603ffe8 	bne	s0,v1,4055b4 <find_applet_by_name+0x2a4>
  405614:	ae42000c 	sw	v0,12(s2)
  405618:	8f998018 	lw	t9,-32744(gp)
  40561c:	0320f809 	jalr	t9
  405620:	02a02021 	move	a0,s5
  405624:	00408021 	move	s0,v0
  405628:	10550049 	beq	v0,s5,405750 <find_applet_by_name+0x440>
  40562c:	8fbc0018 	lw	gp,24(sp)
  405630:	8f998410 	lw	t9,-31728(gp)
  405634:	00402021 	move	a0,v0
  405638:	0320f809 	jalr	t9
  40563c:	2405002e 	li	a1,46
  405640:	0040a821 	move	s5,v0
  405644:	10400042 	beqz	v0,405750 <find_applet_by_name+0x440>
  405648:	8fbc0018 	lw	gp,24(sp)
  40564c:	8f998718 	lw	t9,-30952(gp)
  405650:	a0400000 	sb	zero,0(v0)
  405654:	02002021 	move	a0,s0
  405658:	27a50020 	addiu	a1,sp,32
  40565c:	0320f809 	jalr	t9
  405660:	2406000a 	li	a2,10
  405664:	8fbc0018 	lw	gp,24(sp)
  405668:	ae420004 	sw	v0,4(s2)
  40566c:	8fa20020 	lw	v0,32(sp)
  405670:	80430000 	lb	v1,0(v0)
  405674:	14600004 	bnez	v1,405688 <find_applet_by_name+0x378>
  405678:	8f9984d0 	lw	t9,-31536(gp)
  40567c:	16020009 	bne	s0,v0,4056a4 <find_applet_by_name+0x394>
  405680:	8f998718 	lw	t9,-30952(gp)
  405684:	8f9984d0 	lw	t9,-31536(gp)
  405688:	0320f809 	jalr	t9
  40568c:	02002021 	move	a0,s0
  405690:	10400033 	beqz	v0,405760 <find_applet_by_name+0x450>
  405694:	8fbc0018 	lw	gp,24(sp)
  405698:	8c420008 	lw	v0,8(v0)
  40569c:	ae420004 	sw	v0,4(s2)
  4056a0:	8f998718 	lw	t9,-30952(gp)
  4056a4:	26b50001 	addiu	s5,s5,1
  4056a8:	02a02021 	move	a0,s5
  4056ac:	27a50020 	addiu	a1,sp,32
  4056b0:	0320f809 	jalr	t9
  4056b4:	2406000a 	li	a2,10
  4056b8:	8fbc0018 	lw	gp,24(sp)
  4056bc:	ae420008 	sw	v0,8(s2)
  4056c0:	8fa20020 	lw	v0,32(sp)
  4056c4:	80430000 	lb	v1,0(v0)
  4056c8:	14600004 	bnez	v1,4056dc <find_applet_by_name+0x3cc>
  4056cc:	8f99844c 	lw	t9,-31668(gp)
  4056d0:	16a2ff50 	bne	s5,v0,405414 <find_applet_by_name+0x104>
  4056d4:	02408021 	move	s0,s2
  4056d8:	8f99844c 	lw	t9,-31668(gp)
  4056dc:	0320f809 	jalr	t9
  4056e0:	02a02021 	move	a0,s5
  4056e4:	10400022 	beqz	v0,405770 <find_applet_by_name+0x460>
  4056e8:	8fbc0018 	lw	gp,24(sp)
  4056ec:	8c420008 	lw	v0,8(v0)
  4056f0:	02408021 	move	s0,s2
  4056f4:	08101505 	j	405414 <find_applet_by_name+0x104>
  4056f8:	ae420008 	sw	v0,8(s2)
  4056fc:	1660ff45 	bnez	s3,405414 <find_applet_by_name+0x104>
  405700:	2413ffff 	li	s3,-1
  405704:	3c020044 	lui	v0,0x44
  405708:	081015df 	j	40577c <find_applet_by_name+0x46c>
  40570c:	24427f54 	addiu	v0,v0,32596
  405710:	3c020044 	lui	v0,0x44
  405714:	081015df 	j	40577c <find_applet_by_name+0x46c>
  405718:	24427f10 	addiu	v0,v0,32528
  40571c:	3c020044 	lui	v0,0x44
  405720:	081015df 	j	40577c <find_applet_by_name+0x46c>
  405724:	24427f18 	addiu	v0,v0,32536
  405728:	3c020044 	lui	v0,0x44
  40572c:	081015df 	j	40577c <find_applet_by_name+0x46c>
  405730:	24427f28 	addiu	v0,v0,32552
  405734:	3c020045 	lui	v0,0x45
  405738:	081015df 	j	40577c <find_applet_by_name+0x46c>
  40573c:	24421454 	addiu	v0,v0,5204
  405740:	3c020044 	lui	v0,0x44
  405744:	02408021 	move	s0,s2
  405748:	081015df 	j	40577c <find_applet_by_name+0x46c>
  40574c:	24427f38 	addiu	v0,v0,32568
  405750:	3c020044 	lui	v0,0x44
  405754:	02408021 	move	s0,s2
  405758:	081015df 	j	40577c <find_applet_by_name+0x46c>
  40575c:	24427f40 	addiu	v0,v0,32576
  405760:	3c020045 	lui	v0,0x45
  405764:	02408021 	move	s0,s2
  405768:	081015df 	j	40577c <find_applet_by_name+0x46c>
  40576c:	2442e9d4 	addiu	v0,v0,-5676
  405770:	3c020044 	lui	v0,0x44
  405774:	02408021 	move	s0,s2
  405778:	24427f4c 	addiu	v0,v0,32588
  40577c:	8f8384ac 	lw	v1,-31572(gp)
  405780:	8f998678 	lw	t9,-31112(gp)
  405784:	8c640000 	lw	a0,0(v1)
  405788:	3c050044 	lui	a1,0x44
  40578c:	24a57f74 	addiu	a1,a1,32628
  405790:	26c6b894 	addiu	a2,s6,-18284
  405794:	02803821 	move	a3,s4
  405798:	0320f809 	jalr	t9
  40579c:	afa20010 	sw	v0,16(sp)
  4057a0:	8fbc0018 	lw	gp,24(sp)
  4057a4:	8f99852c 	lw	t9,-31444(gp)
  4057a8:	0320f809 	jalr	t9
  4057ac:	02202021 	move	a0,s1
  4057b0:	081015f3 	j	4057cc <find_applet_by_name+0x4bc>
  4057b4:	8fbc0018 	lw	gp,24(sp)
  4057b8:	8e110010 	lw	s1,16(s0)
  4057bc:	0320f809 	jalr	t9
  4057c0:	02002021 	move	a0,s0
  4057c4:	8fbc0018 	lw	gp,24(sp)
  4057c8:	02208021 	move	s0,s1
  4057cc:	1600fffa 	bnez	s0,4057b8 <find_applet_by_name+0x4a8>
  4057d0:	8f9983c8 	lw	t9,-31800(gp)
  4057d4:	8fbf01f4 	lw	ra,500(sp)
  4057d8:	8fbe01f0 	lw	s8,496(sp)
  4057dc:	8fb701ec 	lw	s7,492(sp)
  4057e0:	8fb601e8 	lw	s6,488(sp)
  4057e4:	8fb501e4 	lw	s5,484(sp)
  4057e8:	8fb401e0 	lw	s4,480(sp)
  4057ec:	8fb301dc 	lw	s3,476(sp)
  4057f0:	8fb201d8 	lw	s2,472(sp)
  4057f4:	8fb101d4 	lw	s1,468(sp)
  4057f8:	8fb001d0 	lw	s0,464(sp)
  4057fc:	03e00008 	jr	ra
  405800:	27bd01f8 	addiu	sp,sp,504

00405804 <run_applet_by_name>:
  405804:	27bdffb8 	addiu	sp,sp,-72
  405808:	afb00024 	sw	s0,36(sp)
  40580c:	3c100046 	lui	s0,0x46
  405810:	3c1c0047 	lui	gp,0x47
  405814:	8e025b04 	lw	v0,23300(s0)
  405818:	279cd250 	addiu	gp,gp,-11696
  40581c:	afb30030 	sw	s3,48(sp)
  405820:	afb10028 	sw	s1,40(sp)
  405824:	afbf0044 	sw	ra,68(sp)
  405828:	afb70040 	sw	s7,64(sp)
  40582c:	afb6003c 	sw	s6,60(sp)
  405830:	afb50038 	sw	s5,56(sp)
  405834:	afb40034 	sw	s4,52(sp)
  405838:	afb2002c 	sw	s2,44(sp)
  40583c:	afbc0010 	sw	gp,16(sp)
  405840:	00a08821 	move	s1,a1
  405844:	14400004 	bnez	v0,405858 <run_applet_by_name+0x54>
  405848:	00c09821 	move	s3,a2
  40584c:	0c1014d5 	jal	405354 <find_applet_by_name+0x44>
  405850:	afa40018 	sw	a0,24(sp)
  405854:	8fa40018 	lw	a0,24(sp)
  405858:	8e025b04 	lw	v0,23300(s0)
  40585c:	3c120046 	lui	s2,0x46
  405860:	24420001 	addiu	v0,v0,1
  405864:	0c1014c4 	jal	405310 <find_applet_by_name>
  405868:	ae025b04 	sw	v0,23300(s0)
  40586c:	ae425b00 	sw	v0,23296(s2)
  405870:	10400098 	beqz	v0,405ad4 <run_applet_by_name+0x2d0>
  405874:	8fbc0010 	lw	gp,16(sp)
  405878:	8c500000 	lw	s0,0(v0)
  40587c:	8e640004 	lw	a0,4(s3)
  405880:	8f828024 	lw	v0,-32732(gp)
  405884:	10800021 	beqz	a0,40590c <run_applet_by_name+0x108>
  405888:	ac500000 	sw	s0,0(v0)
  40588c:	8f9984f0 	lw	t9,-31504(gp)
  405890:	3c050044 	lui	a1,0x44
  405894:	0320f809 	jalr	t9
  405898:	24a57f94 	addiu	a1,a1,32660
  40589c:	1440001b 	bnez	v0,40590c <run_applet_by_name+0x108>
  4058a0:	8fbc0010 	lw	gp,16(sp)
  4058a4:	8f9984f0 	lw	t9,-31504(gp)
  4058a8:	3c050044 	lui	a1,0x44
  4058ac:	02002021 	move	a0,s0
  4058b0:	0320f809 	jalr	t9
  4058b4:	24a57f9c 	addiu	a1,a1,32668
  4058b8:	14400008 	bnez	v0,4058dc <run_applet_by_name+0xd8>
  4058bc:	8fbc0010 	lw	gp,16(sp)
  4058c0:	8e640008 	lw	a0,8(s3)
  4058c4:	50800005 	beqzl	a0,4058dc <run_applet_by_name+0xd8>
  4058c8:	ae405b00 	sw	zero,23296(s2)
  4058cc:	0c1014c4 	jal	405310 <find_applet_by_name>
  4058d0:	00000000 	nop
  4058d4:	ae425b00 	sw	v0,23296(s2)
  4058d8:	8fbc0010 	lw	gp,16(sp)
  4058dc:	8e425b00 	lw	v0,23296(s2)
  4058e0:	10400003 	beqz	v0,4058f0 <run_applet_by_name+0xec>
  4058e4:	8f828028 	lw	v0,-32728(gp)
  4058e8:	0c10149b 	jal	40526c <bb_show_usage>
  4058ec:	00000000 	nop
  4058f0:	8f99802c 	lw	t9,-32724(gp)
  4058f4:	24030001 	li	v1,1
  4058f8:	ac430000 	sw	v1,0(v0)
  4058fc:	00002021 	move	a0,zero
  405900:	0411008f 	bal	405b40 <busybox_main>
  405904:	00002821 	move	a1,zero
  405908:	8fbc0010 	lw	gp,16(sp)
  40590c:	8f99874c 	lw	t9,-30900(gp)
  405910:	0320f809 	jalr	t9
  405914:	8e555b00 	lw	s5,23296(s2)
  405918:	8fbc0010 	lw	gp,16(sp)
  40591c:	8f998824 	lw	t9,-30684(gp)
  405920:	0320f809 	jalr	t9
  405924:	0040a021 	move	s4,v0
  405928:	0040b021 	move	s6,v0
  40592c:	3c020046 	lui	v0,0x46
  405930:	8c425b08 	lw	v0,23304(v0)
  405934:	10400048 	beqz	v0,405a58 <run_applet_by_name+0x254>
  405938:	8fbc0010 	lw	gp,16(sp)
  40593c:	3c020046 	lui	v0,0x46
  405940:	08101655 	j	405954 <run_applet_by_name+0x150>
  405944:	8c505b0c 	lw	s0,23308(v0)
  405948:	50550006 	beql	v0,s5,405964 <run_applet_by_name+0x160>
  40594c:	8e020004 	lw	v0,4(s0)
  405950:	8e100010 	lw	s0,16(s0)
  405954:	5600fffc 	bnezl	s0,405948 <run_applet_by_name+0x144>
  405958:	8e020000 	lw	v0,0(s0)
  40595c:	081016a6 	j	405a98 <run_applet_by_name+0x294>
  405960:	8f998600 	lw	t9,-31232(gp)
  405964:	14540003 	bne	v0,s4,405974 <run_applet_by_name+0x170>
  405968:	8e15000c 	lw	s5,12(s0)
  40596c:	08101674 	j	4059d0 <run_applet_by_name+0x1cc>
  405970:	0015a982 	srl	s5,s5,0x6
  405974:	8e040008 	lw	a0,8(s0)
  405978:	10960014 	beq	a0,s6,4059cc <run_applet_by_name+0x1c8>
  40597c:	8f9987c8 	lw	t9,-30776(gp)
  405980:	0320f809 	jalr	t9
  405984:	00000000 	nop
  405988:	10400011 	beqz	v0,4059d0 <run_applet_by_name+0x1cc>
  40598c:	8fbc0010 	lw	gp,16(sp)
  405990:	0810166e 	j	4059b8 <run_applet_by_name+0x1b4>
  405994:	8c57000c 	lw	s7,12(v0)
  405998:	0320f809 	jalr	t9
  40599c:	00000000 	nop
  4059a0:	10400004 	beqz	v0,4059b4 <run_applet_by_name+0x1b0>
  4059a4:	8fbc0010 	lw	gp,16(sp)
  4059a8:	8c420008 	lw	v0,8(v0)
  4059ac:	50540008 	beql	v0,s4,4059d0 <run_applet_by_name+0x1cc>
  4059b0:	0015a8c2 	srl	s5,s5,0x3
  4059b4:	26f70004 	addiu	s7,s7,4
  4059b8:	8ee40000 	lw	a0,0(s7)
  4059bc:	1480fff6 	bnez	a0,405998 <run_applet_by_name+0x194>
  4059c0:	8f9984d0 	lw	t9,-31536(gp)
  4059c4:	08101675 	j	4059d4 <run_applet_by_name+0x1d0>
  4059c8:	32b50001 	andi	s5,s5,0x1
  4059cc:	0015a8c2 	srl	s5,s5,0x3
  4059d0:	32b50001 	andi	s5,s5,0x1
  4059d4:	56a00004 	bnezl	s5,4059e8 <run_applet_by_name+0x1e4>
  4059d8:	8e03000c 	lw	v1,12(s0)
  4059dc:	3c040044 	lui	a0,0x44
  4059e0:	08101685 	j	405a14 <run_applet_by_name+0x210>
  4059e4:	24847fa4 	addiu	a0,a0,32676
  4059e8:	24020408 	li	v0,1032
  4059ec:	30630408 	andi	v1,v1,0x408
  4059f0:	1462000b 	bne	v1,v0,405a20 <run_applet_by_name+0x21c>
  4059f4:	8f998600 	lw	t9,-31232(gp)
  4059f8:	8f998404 	lw	t9,-31740(gp)
  4059fc:	0320f809 	jalr	t9
  405a00:	8e040008 	lw	a0,8(s0)
  405a04:	10400009 	beqz	v0,405a2c <run_applet_by_name+0x228>
  405a08:	8fbc0010 	lw	gp,16(sp)
  405a0c:	3c040044 	lui	a0,0x44
  405a10:	24847fd0 	addiu	a0,a0,32720
  405a14:	8f998030 	lw	t9,-32720(gp)
  405a18:	0320f809 	jalr	t9
  405a1c:	00000000 	nop
  405a20:	0320f809 	jalr	t9
  405a24:	02c02021 	move	a0,s6
  405a28:	8fbc0010 	lw	gp,16(sp)
  405a2c:	8e02000c 	lw	v0,12(s0)
  405a30:	30420800 	andi	v0,v0,0x800
  405a34:	1040001b 	beqz	v0,405aa4 <run_applet_by_name+0x2a0>
  405a38:	8f998500 	lw	t9,-31488(gp)
  405a3c:	0320f809 	jalr	t9
  405a40:	8e040004 	lw	a0,4(s0)
  405a44:	1040001a 	beqz	v0,405ab0 <run_applet_by_name+0x2ac>
  405a48:	8fbc0010 	lw	gp,16(sp)
  405a4c:	3c040045 	lui	a0,0x45
  405a50:	08101685 	j	405a14 <run_applet_by_name+0x210>
  405a54:	24848018 	addiu	a0,a0,-32744
  405a58:	8ea20008 	lw	v0,8(s5)
  405a5c:	3c030f00 	lui	v1,0xf00
  405a60:	00621024 	and	v0,v1,v0
  405a64:	3c030200 	lui	v1,0x200
  405a68:	14430008 	bne	v0,v1,405a8c <run_applet_by_name+0x288>
  405a6c:	8f9987f8 	lw	t9,-30728(gp)
  405a70:	0320f809 	jalr	t9
  405a74:	00000000 	nop
  405a78:	1040000d 	beqz	v0,405ab0 <run_applet_by_name+0x2ac>
  405a7c:	8fbc0010 	lw	gp,16(sp)
  405a80:	3c040045 	lui	a0,0x45
  405a84:	08101685 	j	405a14 <run_applet_by_name+0x210>
  405a88:	24848060 	addiu	a0,a0,-32672
  405a8c:	14400009 	bnez	v0,405ab4 <run_applet_by_name+0x2b0>
  405a90:	8e425b00 	lw	v0,23296(s2)
  405a94:	8f998600 	lw	t9,-31232(gp)
  405a98:	0320f809 	jalr	t9
  405a9c:	02c02021 	move	a0,s6
  405aa0:	8fbc0010 	lw	gp,16(sp)
  405aa4:	8f9983f0 	lw	t9,-31760(gp)
  405aa8:	0320f809 	jalr	t9
  405aac:	02802021 	move	a0,s4
  405ab0:	8e425b00 	lw	v0,23296(s2)
  405ab4:	02202021 	move	a0,s1
  405ab8:	8c590004 	lw	t9,4(v0)
  405abc:	0320f809 	jalr	t9
  405ac0:	02602821 	move	a1,s3
  405ac4:	8fbc0010 	lw	gp,16(sp)
  405ac8:	8f998458 	lw	t9,-31656(gp)
  405acc:	0320f809 	jalr	t9
  405ad0:	00402021 	move	a0,v0
  405ad4:	3c020046 	lui	v0,0x46
  405ad8:	8c435b04 	lw	v1,23300(v0)
  405adc:	24020001 	li	v0,1
  405ae0:	14620007 	bne	v1,v0,405b00 <run_applet_by_name+0x2fc>
  405ae4:	8e025b04 	lw	v0,23300(s0)
  405ae8:	3c040044 	lui	a0,0x44
  405aec:	24847f9c 	addiu	a0,a0,32668
  405af0:	02202821 	move	a1,s1
  405af4:	0c101601 	jal	405804 <run_applet_by_name>
  405af8:	02603021 	move	a2,s3
  405afc:	8e025b04 	lw	v0,23300(s0)
  405b00:	8fbf0044 	lw	ra,68(sp)
  405b04:	2442ffff 	addiu	v0,v0,-1
  405b08:	ae025b04 	sw	v0,23300(s0)
  405b0c:	8fb70040 	lw	s7,64(sp)
  405b10:	8fb6003c 	lw	s6,60(sp)
  405b14:	8fb50038 	lw	s5,56(sp)
  405b18:	8fb40034 	lw	s4,52(sp)
  405b1c:	8fb30030 	lw	s3,48(sp)
  405b20:	8fb2002c 	lw	s2,44(sp)
  405b24:	8fb10028 	lw	s1,40(sp)
  405b28:	8fb00024 	lw	s0,36(sp)
  405b2c:	03e00008 	jr	ra
  405b30:	27bd0048 	addiu	sp,sp,72
	...

00405b40 <busybox_main>:
  405b40:	27bdffc0 	addiu	sp,sp,-64
  405b44:	3c020046 	lui	v0,0x46
  405b48:	afb20024 	sw	s2,36(sp)
  405b4c:	3c1c0047 	lui	gp,0x47
  405b50:	00809021 	move	s2,a0
  405b54:	8c445b10 	lw	a0,23312(v0)
  405b58:	279cd250 	addiu	gp,gp,-11696
  405b5c:	24030001 	li	v1,1
  405b60:	afb0001c 	sw	s0,28(sp)
  405b64:	afbf003c 	sw	ra,60(sp)
  405b68:	afb70038 	sw	s7,56(sp)
  405b6c:	afb60034 	sw	s6,52(sp)
  405b70:	afb50030 	sw	s5,48(sp)
  405b74:	afb4002c 	sw	s4,44(sp)
  405b78:	afb30028 	sw	s3,40(sp)
  405b7c:	afb10020 	sw	s1,32(sp)
  405b80:	afbc0010 	sw	gp,16(sp)
  405b84:	10830004 	beq	a0,v1,405b98 <busybox_main+0x58>
  405b88:	00a08021 	move	s0,a1
  405b8c:	2651ffff 	addiu	s1,s2,-1
  405b90:	5e200031 	bgtzl	s1,405c58 <busybox_main+0x118>
  405b94:	ac435b10 	sw	v1,23312(v0)
  405b98:	8f82801c 	lw	v0,-32740(gp)
  405b9c:	8f998818 	lw	t9,-30696(gp)
  405ba0:	3c040045 	lui	a0,0x45
  405ba4:	8c450000 	lw	a1,0(v0)
  405ba8:	0320f809 	jalr	t9
  405bac:	2484b8e4 	addiu	a0,a0,-18204
  405bb0:	8fbc0010 	lw	gp,16(sp)
  405bb4:	3c150045 	lui	s5,0x45
  405bb8:	8f90804c 	lw	s0,-32692(gp)
  405bbc:	3c120045 	lui	s2,0x45
  405bc0:	00008821 	move	s1,zero
  405bc4:	3c170045 	lui	s7,0x45
  405bc8:	3c160045 	lui	s6,0x45
  405bcc:	26b5ba3c 	addiu	s5,s5,-17860
  405bd0:	0200a021 	move	s4,s0
  405bd4:	2613000c 	addiu	s3,s0,12
  405bd8:	0810170b 	j	405c2c <busybox_main+0xec>
  405bdc:	26521c1c 	addiu	s2,s2,7196
  405be0:	26e2d64c 	addiu	v0,s7,-10676
  405be4:	26c53ebc 	addiu	a1,s6,16060
  405be8:	0051280b 	movn	a1,v0,s1
  405bec:	0320f809 	jalr	t9
  405bf0:	02a02021 	move	a0,s5
  405bf4:	02228821 	addu	s1,s1,v0
  405bf8:	2a22003d 	slti	v0,s1,61
  405bfc:	2610000c 	addiu	s0,s0,12
  405c00:	1440000a 	bnez	v0,405c2c <busybox_main+0xec>
  405c04:	8fbc0010 	lw	gp,16(sp)
  405c08:	02141023 	subu	v0,s0,s4
  405c0c:	02621021 	addu	v0,s3,v0
  405c10:	8c42fff4 	lw	v0,-12(v0)
  405c14:	10400005 	beqz	v0,405c2c <busybox_main+0xec>
  405c18:	8f998758 	lw	t9,-30888(gp)
  405c1c:	0320f809 	jalr	t9
  405c20:	02402021 	move	a0,s2
  405c24:	8fbc0010 	lw	gp,16(sp)
  405c28:	00008821 	move	s1,zero
  405c2c:	8e060000 	lw	a2,0(s0)
  405c30:	14c0ffeb 	bnez	a2,405be0 <busybox_main+0xa0>
  405c34:	8f998818 	lw	t9,-30696(gp)
  405c38:	8f998758 	lw	t9,-30888(gp)
  405c3c:	3c040045 	lui	a0,0x45
  405c40:	0320f809 	jalr	t9
  405c44:	2484f6cc 	addiu	a0,a0,-2356
  405c48:	8fbc0010 	lw	gp,16(sp)
  405c4c:	8f998458 	lw	t9,-31656(gp)
  405c50:	0320f809 	jalr	t9
  405c54:	00002021 	move	a0,zero
  405c58:	00111080 	sll	v0,s1,0x2
  405c5c:	00a21021 	addu	v0,a1,v0
  405c60:	8c530000 	lw	s3,0(v0)
  405c64:	8f998038 	lw	t9,-32712(gp)
  405c68:	0320f809 	jalr	t9
  405c6c:	02602021 	move	a0,s3
  405c70:	8fbc0010 	lw	gp,16(sp)
  405c74:	8e050004 	lw	a1,4(s0)
  405c78:	02629821 	addu	s3,s3,v0
  405c7c:	02659823 	subu	s3,s3,a1
  405c80:	8e040000 	lw	a0,0(s0)
  405c84:	8f9987ec 	lw	t9,-30740(gp)
  405c88:	0320f809 	jalr	t9
  405c8c:	02603021 	move	a2,s3
  405c90:	8fbc0010 	lw	gp,16(sp)
  405c94:	8e020000 	lw	v0,0(s0)
  405c98:	8e060004 	lw	a2,4(s0)
  405c9c:	8f998540 	lw	t9,-31424(gp)
  405ca0:	00532021 	addu	a0,v0,s3
  405ca4:	00002821 	move	a1,zero
  405ca8:	0320f809 	jalr	t9
  405cac:	00c23023 	subu	a2,a2,v0
  405cb0:	8fbc0010 	lw	gp,16(sp)
  405cb4:	8e130004 	lw	s3,4(s0)
  405cb8:	8e020000 	lw	v0,0(s0)
  405cbc:	8f9987ec 	lw	t9,-30740(gp)
  405cc0:	02002021 	move	a0,s0
  405cc4:	26050004 	addiu	a1,s0,4
  405cc8:	00123080 	sll	a2,s2,0x2
  405ccc:	0320f809 	jalr	t9
  405cd0:	02629823 	subu	s3,s3,v0
  405cd4:	02001021 	move	v0,s0
  405cd8:	00001821 	move	v1,zero
  405cdc:	8c440000 	lw	a0,0(v0)
  405ce0:	24630001 	addiu	v1,v1,1
  405ce4:	00932023 	subu	a0,a0,s3
  405ce8:	ac440000 	sw	a0,0(v0)
  405cec:	0071202a 	slt	a0,v1,s1
  405cf0:	1480fffa 	bnez	a0,405cdc <busybox_main+0x19c>
  405cf4:	24420004 	addiu	v0,v0,4
  405cf8:	02202021 	move	a0,s1
  405cfc:	0c10145f 	jal	40517c <main>
  405d00:	02002821 	move	a1,s0
	...
  405d10:	3c1c0047 	lui	gp,0x47
  405d14:	279cd250 	addiu	gp,gp,-11696
  405d18:	27bdffd0 	addiu	sp,sp,-48
  405d1c:	8f998080 	lw	t9,-32640(gp)
  405d20:	3c060045 	lui	a2,0x45
  405d24:	afb0001c 	sw	s0,28(sp)
  405d28:	afbc0010 	sw	gp,16(sp)
  405d2c:	afbf002c 	sw	ra,44(sp)
  405d30:	afb30028 	sw	s3,40(sp)
  405d34:	afb20024 	sw	s2,36(sp)
  405d38:	afb10020 	sw	s1,32(sp)
  405d3c:	24c60790 	addiu	a2,a2,1936
  405d40:	0320f809 	jalr	t9
  405d44:	00a08021 	move	s0,a1
  405d48:	8fbc0010 	lw	gp,16(sp)
  405d4c:	8f82862c 	lw	v0,-31188(gp)
  405d50:	8c420000 	lw	v0,0(v0)
  405d54:	00021080 	sll	v0,v0,0x2
  405d58:	02028021 	addu	s0,s0,v0
  405d5c:	8e020000 	lw	v0,0(s0)
  405d60:	14400005 	bnez	v0,405d78 <busybox_main+0x238>
  405d64:	00008821 	move	s1,zero
  405d68:	3c020045 	lui	v0,0x45
  405d6c:	24422434 	addiu	v0,v0,9268
  405d70:	ae02fffc 	sw	v0,-4(s0)
  405d74:	2610fffc 	addiu	s0,s0,-4
  405d78:	8f998084 	lw	t9,-32636(gp)
  405d7c:	0320f809 	jalr	t9
  405d80:	8e040000 	lw	a0,0(s0)
  405d84:	00409021 	move	s2,v0
  405d88:	10400013 	beqz	v0,405dd8 <busybox_main+0x298>
  405d8c:	8fbc0010 	lw	gp,16(sp)
  405d90:	8f998444 	lw	t9,-31676(gp)
  405d94:	0320f809 	jalr	t9
  405d98:	00402021 	move	a0,v0
  405d9c:	8fbc0010 	lw	gp,16(sp)
  405da0:	00402021 	move	a0,v0
  405da4:	8f998088 	lw	t9,-32632(gp)
  405da8:	0320f809 	jalr	t9
  405dac:	24050001 	li	a1,1
  405db0:	8fbc0010 	lw	gp,16(sp)
  405db4:	00409821 	move	s3,v0
  405db8:	8f99808c 	lw	t9,-32628(gp)
  405dbc:	0320f809 	jalr	t9
  405dc0:	02402021 	move	a0,s2
  405dc4:	2a730000 	slti	s3,s3,0
  405dc8:	24020001 	li	v0,1
  405dcc:	8fbc0010 	lw	gp,16(sp)
  405dd0:	08101777 	j	405ddc <busybox_main+0x29c>
  405dd4:	0053880b 	movn	s1,v0,s3
  405dd8:	24110001 	li	s1,1
  405ddc:	26100004 	addiu	s0,s0,4
  405de0:	8e020000 	lw	v0,0(s0)
  405de4:	1440ffe5 	bnez	v0,405d7c <busybox_main+0x23c>
  405de8:	8f998084 	lw	t9,-32636(gp)
  405dec:	8fbf002c 	lw	ra,44(sp)
  405df0:	02201021 	move	v0,s1
  405df4:	8fb30028 	lw	s3,40(sp)
  405df8:	8fb20024 	lw	s2,36(sp)
  405dfc:	8fb10020 	lw	s1,32(sp)
  405e00:	8fb0001c 	lw	s0,28(sp)
  405e04:	03e00008 	jr	ra
  405e08:	27bd0030 	addiu	sp,sp,48
  405e0c:	00000000 	nop
  405e10:	3c1c0047 	lui	gp,0x47
  405e14:	279cd250 	addiu	gp,gp,-11696
  405e18:	27bdffd0 	addiu	sp,sp,-48
  405e1c:	8f998058 	lw	t9,-32680(gp)
  405e20:	afb10028 	sw	s1,40(sp)
  405e24:	afb00024 	sw	s0,36(sp)
  405e28:	afbc0010 	sw	gp,16(sp)
  405e2c:	afa60018 	sw	a2,24(sp)
  405e30:	afbf002c 	sw	ra,44(sp)
  405e34:	00808021 	move	s0,a0
  405e38:	00a08821 	move	s1,a1
  405e3c:	00c02021 	move	a0,a2
  405e40:	0320f809 	jalr	t9
  405e44:	24a50018 	addiu	a1,a1,24
  405e48:	8fbc0010 	lw	gp,16(sp)
  405e4c:	14400006 	bnez	v0,405e68 <busybox_main+0x328>
  405e50:	8fa60018 	lw	a2,24(sp)
  405e54:	3c040045 	lui	a0,0x45
  405e58:	8f998030 	lw	t9,-32720(gp)
  405e5c:	2484ba44 	addiu	a0,a0,-17852
  405e60:	0320f809 	jalr	t9
  405e64:	00c02821 	move	a1,a2
  405e68:	8f9986bc 	lw	t9,-31044(gp)
  405e6c:	8e250018 	lw	a1,24(s1)
  405e70:	0320f809 	jalr	t9
  405e74:	02002021 	move	a0,s0
  405e78:	8fbc0010 	lw	gp,16(sp)
  405e7c:	10400007 	beqz	v0,405e9c <busybox_main+0x35c>
  405e80:	24030001 	li	v1,1
  405e84:	8f998090 	lw	t9,-32624(gp)
  405e88:	3c040045 	lui	a0,0x45
  405e8c:	2484f150 	addiu	a0,a0,-3760
  405e90:	0320f809 	jalr	t9
  405e94:	02002821 	move	a1,s0
  405e98:	00001821 	move	v1,zero
  405e9c:	8fbf002c 	lw	ra,44(sp)
  405ea0:	00601021 	move	v0,v1
  405ea4:	8fb10028 	lw	s1,40(sp)
  405ea8:	8fb00024 	lw	s0,36(sp)
  405eac:	03e00008 	jr	ra
  405eb0:	27bd0030 	addiu	sp,sp,48
  405eb4:	3c1c0047 	lui	gp,0x47
  405eb8:	27bdffb8 	addiu	sp,sp,-72
  405ebc:	279cd250 	addiu	gp,gp,-11696
  405ec0:	24a60004 	addiu	a2,a1,4
  405ec4:	afb30038 	sw	s3,56(sp)
  405ec8:	afbf0044 	sw	ra,68(sp)
  405ecc:	afb50040 	sw	s5,64(sp)
  405ed0:	afb4003c 	sw	s4,60(sp)
  405ed4:	afb20034 	sw	s2,52(sp)
  405ed8:	afb10030 	sw	s1,48(sp)
  405edc:	afb0002c 	sw	s0,44(sp)
  405ee0:	afbc0020 	sw	gp,32(sp)
  405ee4:	00c04021 	move	t0,a2
  405ee8:	2407002d 	li	a3,45
  405eec:	00001021 	move	v0,zero
  405ef0:	00009821 	move	s3,zero
  405ef4:	240b002d 	li	t3,45
  405ef8:	081017dc 	j	405f70 <busybox_main+0x430>
  405efc:	24090052 	li	t1,82
  405f00:	54870015 	bnel	a0,a3,405f58 <busybox_main+0x418>
  405f04:	00022080 	sll	a0,v0,0x2
  405f08:	806a0001 	lb	t2,1(v1)
  405f0c:	154b0006 	bne	t2,t3,405f28 <busybox_main+0x3e8>
  405f10:	00000000 	nop
  405f14:	806a0002 	lb	t2,2(v1)
  405f18:	11400013 	beqz	t2,405f68 <busybox_main+0x428>
  405f1c:	00002021 	move	a0,zero
  405f20:	081017d4 	j	405f50 <busybox_main+0x410>
  405f24:	00000000 	nop
  405f28:	15490009 	bne	t2,t1,405f50 <busybox_main+0x410>
  405f2c:	00000000 	nop
  405f30:	24630002 	addiu	v1,v1,2
  405f34:	80670000 	lb	a3,0(v1)
  405f38:	10e9fffe 	beq	a3,t1,405f34 <busybox_main+0x3f4>
  405f3c:	24630001 	addiu	v1,v1,1
  405f40:	50e00009 	beqzl	a3,405f68 <busybox_main+0x428>
  405f44:	24130001 	li	s3,1
  405f48:	081017e5 	j	405f94 <busybox_main+0x454>
  405f4c:	8f998094 	lw	t9,-32620(gp)
  405f50:	1440000f 	bnez	v0,405f90 <busybox_main+0x450>
  405f54:	00022080 	sll	a0,v0,0x2
  405f58:	00c42021 	addu	a0,a2,a0
  405f5c:	ac830000 	sw	v1,0(a0)
  405f60:	24420001 	addiu	v0,v0,1
  405f64:	00e02021 	move	a0,a3
  405f68:	25080004 	addiu	t0,t0,4
  405f6c:	00803821 	move	a3,a0
  405f70:	8d030000 	lw	v1,0(t0)
  405f74:	5460ffe2 	bnezl	v1,405f00 <busybox_main+0x3c0>
  405f78:	80640000 	lb	a0,0(v1)
  405f7c:	00021880 	sll	v1,v0,0x2
  405f80:	00c33021 	addu	a2,a2,v1
  405f84:	28420002 	slti	v0,v0,2
  405f88:	10400004 	beqz	v0,405f9c <busybox_main+0x45c>
  405f8c:	acc00000 	sw	zero,0(a2)
  405f90:	8f998094 	lw	t9,-32620(gp)
  405f94:	0411fcb5 	bal	40526c <bb_show_usage>
  405f98:	00000000 	nop
  405f9c:	3c120040 	lui	s2,0x40
  405fa0:	8cb50004 	lw	s5,4(a1)
  405fa4:	24b00008 	addiu	s0,a1,8
  405fa8:	00008821 	move	s1,zero
  405fac:	26525e10 	addiu	s2,s2,24080
  405fb0:	24140001 	li	s4,1
  405fb4:	8e040000 	lw	a0,0(s0)
  405fb8:	8f998098 	lw	t9,-32616(gp)
  405fbc:	afb20010 	sw	s2,16(sp)
  405fc0:	afb20014 	sw	s2,20(sp)
  405fc4:	afb50018 	sw	s5,24(sp)
  405fc8:	02602821 	move	a1,s3
  405fcc:	00003021 	move	a2,zero
  405fd0:	0320f809 	jalr	t9
  405fd4:	00003821 	move	a3,zero
  405fd8:	26100004 	addiu	s0,s0,4
  405fdc:	0282880a 	movz	s1,s4,v0
  405fe0:	8e020000 	lw	v0,0(s0)
  405fe4:	1440fff3 	bnez	v0,405fb4 <busybox_main+0x474>
  405fe8:	8fbc0020 	lw	gp,32(sp)
  405fec:	8fbf0044 	lw	ra,68(sp)
  405ff0:	02201021 	move	v0,s1
  405ff4:	8fb50040 	lw	s5,64(sp)
  405ff8:	8fb4003c 	lw	s4,60(sp)
  405ffc:	8fb30038 	lw	s3,56(sp)
  406000:	8fb20034 	lw	s2,52(sp)
  406004:	8fb10030 	lw	s1,48(sp)
  406008:	8fb0002c 	lw	s0,44(sp)
  40600c:	03e00008 	jr	ra
  406010:	27bd0048 	addiu	sp,sp,72
	...
  406020:	3c1c0047 	lui	gp,0x47
  406024:	279cd250 	addiu	gp,gp,-11696
  406028:	8f828814 	lw	v0,-30700(gp)
  40602c:	27bdff98 	addiu	sp,sp,-104
  406030:	8c420000 	lw	v0,0(v0)
  406034:	afb10044 	sw	s1,68(sp)
  406038:	8f91809c 	lw	s1,-32612(gp)
  40603c:	8f998080 	lw	t9,-32640(gp)
  406040:	afa20030 	sw	v0,48(sp)
  406044:	3c060045 	lui	a2,0x45
  406048:	24020002 	li	v0,2
  40604c:	afb50054 	sw	s5,84(sp)
  406050:	afb20048 	sw	s2,72(sp)
  406054:	afb00040 	sw	s0,64(sp)
  406058:	afbc0020 	sw	gp,32(sp)
  40605c:	afbf0064 	sw	ra,100(sp)
  406060:	afbe0060 	sw	s8,96(sp)
  406064:	afb7005c 	sw	s7,92(sp)
  406068:	afb60058 	sw	s6,88(sp)
  40606c:	afb40050 	sw	s4,80(sp)
  406070:	afb3004c 	sw	s3,76(sp)
  406074:	24c6ba60 	addiu	a2,a2,-17824
  406078:	ae220000 	sw	v0,0(s1)
  40607c:	00809021 	move	s2,a0
  406080:	0320f809 	jalr	t9
  406084:	00a08021 	move	s0,a1
  406088:	0040a821 	move	s5,v0
  40608c:	24020003 	li	v0,3
  406090:	12a20008 	beq	s5,v0,4060b4 <busybox_main+0x574>
  406094:	8fbc0020 	lw	gp,32(sp)
  406098:	8f82862c 	lw	v0,-31188(gp)
  40609c:	2652ffff 	addiu	s2,s2,-1
  4060a0:	8c420000 	lw	v0,0(v0)
  4060a4:	02429023 	subu	s2,s2,v0
  4060a8:	2e520002 	sltiu	s2,s2,2
  4060ac:	16400004 	bnez	s2,4060c0 <busybox_main+0x580>
  4060b0:	00029080 	sll	s2,v0,0x2
  4060b4:	8f998094 	lw	t9,-32620(gp)
  4060b8:	0411fc6c 	bal	40526c <bb_show_usage>
  4060bc:	00000000 	nop
  4060c0:	02129021 	addu	s2,s0,s2
  4060c4:	8e540000 	lw	s4,0(s2)
  4060c8:	8f998084 	lw	t9,-32636(gp)
  4060cc:	0320f809 	jalr	t9
  4060d0:	02802021 	move	a0,s4
  4060d4:	00408021 	move	s0,v0
  4060d8:	10400007 	beqz	v0,4060f8 <busybox_main+0x5b8>
  4060dc:	8fbc0020 	lw	gp,32(sp)
  4060e0:	8e530004 	lw	s3,4(s2)
  4060e4:	16600006 	bnez	s3,406100 <busybox_main+0x5c0>
  4060e8:	8f998084 	lw	t9,-32636(gp)
  4060ec:	3c130045 	lui	s3,0x45
  4060f0:	08101840 	j	406100 <busybox_main+0x5c0>
  4060f4:	26732434 	addiu	s3,s3,9268
  4060f8:	0810184b 	j	40612c <busybox_main+0x5ec>
  4060fc:	8e240000 	lw	a0,0(s1)
  406100:	0320f809 	jalr	t9
  406104:	02602021 	move	a0,s3
  406108:	00408821 	move	s1,v0
  40610c:	10400005 	beqz	v0,406124 <busybox_main+0x5e4>
  406110:	8fbc0020 	lw	gp,32(sp)
  406114:	12020008 	beq	s0,v0,406138 <busybox_main+0x5f8>
  406118:	8fbf0064 	lw	ra,100(sp)
  40611c:	0810185a 	j	406168 <busybox_main+0x628>
  406120:	24020002 	li	v0,2
  406124:	8f82809c 	lw	v0,-32612(gp)
  406128:	8c440000 	lw	a0,0(v0)
  40612c:	8f998458 	lw	t9,-31656(gp)
  406130:	0320f809 	jalr	t9
  406134:	00000000 	nop
  406138:	00001021 	move	v0,zero
  40613c:	8fbe0060 	lw	s8,96(sp)
  406140:	8fb7005c 	lw	s7,92(sp)
  406144:	8fb60058 	lw	s6,88(sp)
  406148:	8fb50054 	lw	s5,84(sp)
  40614c:	8fb40050 	lw	s4,80(sp)
  406150:	8fb3004c 	lw	s3,76(sp)
  406154:	8fb20048 	lw	s2,72(sp)
  406158:	8fb10044 	lw	s1,68(sp)
  40615c:	8fb00040 	lw	s0,64(sp)
  406160:	03e00008 	jr	ra
  406164:	27bd0068 	addiu	sp,sp,104
  406168:	12a20003 	beq	s5,v0,406178 <busybox_main+0x638>
  40616c:	3c020045 	lui	v0,0x45
  406170:	08101860 	j	406180 <busybox_main+0x640>
  406174:	2442ba78 	addiu	v0,v0,-17800
  406178:	3c020045 	lui	v0,0x45
  40617c:	2442ba64 	addiu	v0,v0,-17820
  406180:	3aa30002 	xori	v1,s5,0x2
  406184:	afa2002c 	sw	v0,44(sp)
  406188:	afa00028 	sw	zero,40(sp)
  40618c:	24160001 	li	s6,1
  406190:	0000f021 	move	s8,zero
  406194:	2417ffff 	li	s7,-1
  406198:	afa30034 	sw	v1,52(sp)
  40619c:	8e020048 	lw	v0,72(s0)
  4061a0:	1040000c 	beqz	v0,4061d4 <busybox_main+0x694>
  4061a4:	8f9984c8 	lw	t9,-31544(gp)
  4061a8:	8e020010 	lw	v0,16(s0)
  4061ac:	8e030018 	lw	v1,24(s0)
  4061b0:	0043182b 	sltu	v1,v0,v1
  4061b4:	10600005 	beqz	v1,4061cc <busybox_main+0x68c>
  4061b8:	02002021 	move	a0,s0
  4061bc:	90520000 	lbu	s2,0(v0)
  4061c0:	24420001 	addiu	v0,v0,1
  4061c4:	0810187a 	j	4061e8 <busybox_main+0x6a8>
  4061c8:	ae020010 	sw	v0,16(s0)
  4061cc:	08101876 	j	4061d8 <busybox_main+0x698>
  4061d0:	8f9986c0 	lw	t9,-31040(gp)
  4061d4:	02002021 	move	a0,s0
  4061d8:	0320f809 	jalr	t9
  4061dc:	00000000 	nop
  4061e0:	8fbc0020 	lw	gp,32(sp)
  4061e4:	00409021 	move	s2,v0
  4061e8:	8e220048 	lw	v0,72(s1)
  4061ec:	1040000c 	beqz	v0,406220 <busybox_main+0x6e0>
  4061f0:	8f9984c8 	lw	t9,-31544(gp)
  4061f4:	8e230010 	lw	v1,16(s1)
  4061f8:	8e220018 	lw	v0,24(s1)
  4061fc:	0062102b 	sltu	v0,v1,v0
  406200:	10400005 	beqz	v0,406218 <busybox_main+0x6d8>
  406204:	02202021 	move	a0,s1
  406208:	90620000 	lbu	v0,0(v1)
  40620c:	24630001 	addiu	v1,v1,1
  406210:	0810188c 	j	406230 <busybox_main+0x6f0>
  406214:	ae230010 	sw	v1,16(s1)
  406218:	08101889 	j	406224 <busybox_main+0x6e4>
  40621c:	8f9986c0 	lw	t9,-31040(gp)
  406220:	02202021 	move	a0,s1
  406224:	0320f809 	jalr	t9
  406228:	00000000 	nop
  40622c:	8fbc0020 	lw	gp,32(sp)
  406230:	1242002c 	beq	s2,v0,4062e4 <busybox_main+0x7a4>
  406234:	27de0001 	addiu	s8,s8,1
  406238:	50570005 	beql	v0,s7,406250 <busybox_main+0x710>
  40623c:	0260a021 	move	s4,s3
  406240:	16570016 	bne	s2,s7,40629c <busybox_main+0x75c>
  406244:	24030001 	li	v1,1
  406248:	08101896 	j	406258 <busybox_main+0x718>
  40624c:	8f9980a0 	lw	t9,-32608(gp)
  406250:	02208021 	move	s0,s1
  406254:	8f9980a0 	lw	t9,-32608(gp)
  406258:	afa20038 	sw	v0,56(sp)
  40625c:	02002021 	move	a0,s0
  406260:	0320f809 	jalr	t9
  406264:	02802821 	move	a1,s4
  406268:	8fbc0020 	lw	gp,32(sp)
  40626c:	2412ffff 	li	s2,-1
  406270:	8f8384ac 	lw	v1,-31572(gp)
  406274:	8f9980a4 	lw	t9,-32604(gp)
  406278:	8c630000 	lw	v1,0(v1)
  40627c:	0320f809 	jalr	t9
  406280:	afa30030 	sw	v1,48(sp)
  406284:	3c030045 	lui	v1,0x45
  406288:	2463ba98 	addiu	v1,v1,-17768
  40628c:	8fbc0020 	lw	gp,32(sp)
  406290:	8fa20038 	lw	v0,56(sp)
  406294:	afa3002c 	sw	v1,44(sp)
  406298:	24030001 	li	v1,1
  40629c:	12a3001a 	beq	s5,v1,406308 <busybox_main+0x7c8>
  4062a0:	8fa30034 	lw	v1,52(sp)
  4062a4:	8f9980a8 	lw	t9,-32600(gp)
  4062a8:	0243b00a 	movz	s6,s2,v1
  4062ac:	8fa40030 	lw	a0,48(sp)
  4062b0:	8fa5002c 	lw	a1,44(sp)
  4062b4:	afbe0010 	sw	s8,16(sp)
  4062b8:	afb60014 	sw	s6,20(sp)
  4062bc:	afa20018 	sw	v0,24(sp)
  4062c0:	02803021 	move	a2,s4
  4062c4:	0320f809 	jalr	t9
  4062c8:	02603821 	move	a3,s3
  4062cc:	24030001 	li	v1,1
  4062d0:	8fbc0020 	lw	gp,32(sp)
  4062d4:	16a00008 	bnez	s5,4062f8 <busybox_main+0x7b8>
  4062d8:	afa30028 	sw	v1,40(sp)
  4062dc:	081018c5 	j	406314 <busybox_main+0x7d4>
  4062e0:	8f9980a0 	lw	t9,-32608(gp)
  4062e4:	2402000a 	li	v0,10
  4062e8:	16420003 	bne	s2,v0,4062f8 <busybox_main+0x7b8>
  4062ec:	00000000 	nop
  4062f0:	08101867 	j	40619c <busybox_main+0x65c>
  4062f4:	26d60001 	addiu	s6,s6,1
  4062f8:	5657ffa9 	bnel	s2,s7,4061a0 <busybox_main+0x660>
  4062fc:	8e020048 	lw	v0,72(s0)
  406300:	081018c5 	j	406314 <busybox_main+0x7d4>
  406304:	8f9980a0 	lw	t9,-32608(gp)
  406308:	24030001 	li	v1,1
  40630c:	afa30028 	sw	v1,40(sp)
  406310:	8f9980a0 	lw	t9,-32608(gp)
  406314:	02002021 	move	a0,s0
  406318:	0320f809 	jalr	t9
  40631c:	02802821 	move	a1,s4
  406320:	8fbc0020 	lw	gp,32(sp)
  406324:	02202021 	move	a0,s1
  406328:	8f9980a0 	lw	t9,-32608(gp)
  40632c:	0320f809 	jalr	t9
  406330:	02602821 	move	a1,s3
  406334:	8fbc0020 	lw	gp,32(sp)
  406338:	8f9980ac 	lw	t9,-32596(gp)
  40633c:	0320f809 	jalr	t9
  406340:	8fa40028 	lw	a0,40(sp)
	...
  406350:	3c1c0047 	lui	gp,0x47
  406354:	279cd250 	addiu	gp,gp,-11696
  406358:	27bdfe88 	addiu	sp,sp,-376
  40635c:	8f998080 	lw	t9,-32640(gp)
  406360:	3c060045 	lui	a2,0x45
  406364:	afb20164 	sw	s2,356(sp)
  406368:	afb0015c 	sw	s0,348(sp)
  40636c:	afbc0010 	sw	gp,16(sp)
  406370:	afbf0174 	sw	ra,372(sp)
  406374:	afb50170 	sw	s5,368(sp)
  406378:	afb4016c 	sw	s4,364(sp)
  40637c:	afb30168 	sw	s3,360(sp)
  406380:	afb10160 	sw	s1,352(sp)
  406384:	24c6bab0 	addiu	a2,a2,-17744
  406388:	00809021 	move	s2,a0
  40638c:	0320f809 	jalr	t9
  406390:	00a08021 	move	s0,a1
  406394:	30440020 	andi	a0,v0,0x20
  406398:	34430007 	ori	v1,v0,0x7
  40639c:	0064100b 	movn	v0,v1,a0
  4063a0:	30440040 	andi	a0,v0,0x40
  4063a4:	34430004 	ori	v1,v0,0x4
  4063a8:	0064100b 	movn	v0,v1,a0
  4063ac:	8fbc0010 	lw	gp,16(sp)
  4063b0:	30440080 	andi	a0,v0,0x80
  4063b4:	34430002 	ori	v1,v0,0x2
  4063b8:	0064100b 	movn	v0,v1,a0
  4063bc:	8f83862c 	lw	v1,-31188(gp)
  4063c0:	8c630000 	lw	v1,0(v1)
  4063c4:	24640001 	addiu	a0,v1,1
  4063c8:	0092202a 	slt	a0,a0,s2
  4063cc:	14800004 	bnez	a0,4063e0 <busybox_main+0x8a0>
  4063d0:	38540002 	xori	s4,v0,0x2
  4063d4:	8f998094 	lw	t9,-32620(gp)
  4063d8:	0411fba4 	bal	40526c <bb_show_usage>
  4063dc:	00000000 	nop
  4063e0:	2642ffff 	addiu	v0,s2,-1
  4063e4:	00021080 	sll	v0,v0,0x2
  4063e8:	02021021 	addu	v0,s0,v0
  4063ec:	8c510000 	lw	s1,0(v0)
  4063f0:	00031080 	sll	v0,v1,0x2
  4063f4:	24630002 	addiu	v1,v1,2
  4063f8:	02028021 	addu	s0,s0,v0
  4063fc:	14720020 	bne	v1,s2,406480 <busybox_main+0x940>
  406400:	00009821 	move	s3,zero
  406404:	8f8287f0 	lw	v0,-30736(gp)
  406408:	8f838574 	lw	v1,-31372(gp)
  40640c:	32860002 	andi	a2,s4,0x2
  406410:	8f9980b0 	lw	t9,-32592(gp)
  406414:	0066100a 	movz	v0,v1,a2
  406418:	8e040000 	lw	a0,0(s0)
  40641c:	27a500b8 	addiu	a1,sp,184
  406420:	0320f809 	jalr	t9
  406424:	00403021 	move	a2,v0
  406428:	0040a821 	move	s5,v0
  40642c:	04400007 	bltz	v0,40644c <busybox_main+0x90c>
  406430:	8fbc0010 	lw	gp,16(sp)
  406434:	8f9980b4 	lw	t9,-32588(gp)
  406438:	02202021 	move	a0,s1
  40643c:	0320f809 	jalr	t9
  406440:	27a50018 	addiu	a1,sp,24
  406444:	04410003 	bgez	v0,406454 <busybox_main+0x914>
  406448:	8fbc0010 	lw	gp,16(sp)
  40644c:	0810193c 	j	4064f0 <busybox_main+0x9b0>
  406450:	24040001 	li	a0,1
  406454:	00551825 	or	v1,v0,s5
  406458:	30630002 	andi	v1,v1,0x2
  40645c:	10600012 	beqz	v1,4064a8 <busybox_main+0x968>
  406460:	02209021 	move	s2,s1
  406464:	32830004 	andi	v1,s4,0x4
  406468:	00031843 	sra	v1,v1,0x1
  40646c:	02a3a824 	and	s5,s5,v1
  406470:	12a00004 	beqz	s5,406484 <busybox_main+0x944>
  406474:	8f9980b8 	lw	t9,-32584(gp)
  406478:	1040000c 	beqz	v0,4064ac <busybox_main+0x96c>
  40647c:	8f9980bc 	lw	t9,-32580(gp)
  406480:	8f9980b8 	lw	t9,-32584(gp)
  406484:	0320f809 	jalr	t9
  406488:	8e040000 	lw	a0,0(s0)
  40648c:	8fbc0010 	lw	gp,16(sp)
  406490:	02202021 	move	a0,s1
  406494:	8f9980c0 	lw	t9,-32576(gp)
  406498:	0320f809 	jalr	t9
  40649c:	00402821 	move	a1,v0
  4064a0:	8fbc0010 	lw	gp,16(sp)
  4064a4:	00409021 	move	s2,v0
  4064a8:	8f9980bc 	lw	t9,-32580(gp)
  4064ac:	8e040000 	lw	a0,0(s0)
  4064b0:	02402821 	move	a1,s2
  4064b4:	0320f809 	jalr	t9
  4064b8:	02803021 	move	a2,s4
  4064bc:	28420000 	slti	v0,v0,0
  4064c0:	24030001 	li	v1,1
  4064c4:	0062980b 	movn	s3,v1,v0
  4064c8:	8e020004 	lw	v0,4(s0)
  4064cc:	8fbc0010 	lw	gp,16(sp)
  4064d0:	10510007 	beq	v0,s1,4064f0 <busybox_main+0x9b0>
  4064d4:	02602021 	move	a0,s3
  4064d8:	8f9983c8 	lw	t9,-31800(gp)
  4064dc:	0320f809 	jalr	t9
  4064e0:	02402021 	move	a0,s2
  4064e4:	26100004 	addiu	s0,s0,4
  4064e8:	08101920 	j	406480 <busybox_main+0x940>
  4064ec:	8fbc0010 	lw	gp,16(sp)
  4064f0:	8f998458 	lw	t9,-31656(gp)
  4064f4:	0320f809 	jalr	t9
  4064f8:	00000000 	nop
  4064fc:	00000000 	nop
  406500:	8c830000 	lw	v1,0(a0)
  406504:	8ca40000 	lw	a0,0(a1)
  406508:	0083282a 	slt	a1,a0,v1
  40650c:	14a00004 	bnez	a1,406520 <busybox_main+0x9e0>
  406510:	24020001 	li	v0,1
  406514:	0064182a 	slt	v1,v1,a0
  406518:	2402ffff 	li	v0,-1
  40651c:	0003100a 	movz	v0,zero,v1
  406520:	03e00008 	jr	ra
  406524:	00000000 	nop
  406528:	3c1c0047 	lui	gp,0x47
  40652c:	27bdffa8 	addiu	sp,sp,-88
  406530:	279cd250 	addiu	gp,gp,-11696
  406534:	afb7004c 	sw	s7,76(sp)
  406538:	afb50044 	sw	s5,68(sp)
  40653c:	afb20038 	sw	s2,56(sp)
  406540:	afb10034 	sw	s1,52(sp)
  406544:	afbf0054 	sw	ra,84(sp)
  406548:	afbe0050 	sw	s8,80(sp)
  40654c:	afb60048 	sw	s6,72(sp)
  406550:	afb40040 	sw	s4,64(sp)
  406554:	afb3003c 	sw	s3,60(sp)
  406558:	afb00030 	sw	s0,48(sp)
  40655c:	afbc0010 	sw	gp,16(sp)
  406560:	afa40058 	sw	a0,88(sp)
  406564:	00009021 	move	s2,zero
  406568:	3c170046 	lui	s7,0x46
  40656c:	3c150046 	lui	s5,0x46
  406570:	08101a81 	j	406a04 <busybox_main+0xec4>
  406574:	3c110046 	lui	s1,0x46
  406578:	3c030046 	lui	v1,0x46
  40657c:	90625b20 	lbu	v0,23328(v1)
  406580:	30420003 	andi	v0,v0,0x3
  406584:	1040005d 	beqz	v0,4066fc <busybox_main+0xbbc>
  406588:	3c020046 	lui	v0,0x46
  40658c:	8f998038 	lw	t9,-32712(gp)
  406590:	0320f809 	jalr	t9
  406594:	02002021 	move	a0,s0
  406598:	8fbc0010 	lw	gp,16(sp)
  40659c:	00402021 	move	a0,v0
  4065a0:	8f9980c4 	lw	t9,-32572(gp)
  4065a4:	0320f809 	jalr	t9
  4065a8:	24050001 	li	a1,1
  4065ac:	0040f021 	move	s8,v0
  4065b0:	8fbc0010 	lw	gp,16(sp)
  4065b4:	081019a4 	j	406690 <busybox_main+0xb50>
  4065b8:	0000b021 	move	s6,zero
  4065bc:	001618c0 	sll	v1,s6,0x3
  4065c0:	00431021 	addu	v0,v0,v1
  4065c4:	8c530000 	lw	s3,0(v0)
  4065c8:	afa30020 	sw	v1,32(sp)
  4065cc:	0810199d 	j	406674 <busybox_main+0xb34>
  4065d0:	0213a021 	addu	s4,s0,s3
  4065d4:	03d31821 	addu	v1,s8,s3
  4065d8:	80620000 	lb	v0,0(v1)
  4065dc:	14400019 	bnez	v0,406644 <busybox_main+0xb04>
  4065e0:	afa30024 	sw	v1,36(sp)
  4065e4:	8f848478 	lw	a0,-31624(gp)
  4065e8:	8c850000 	lw	a1,0(a0)
  4065ec:	8ca20048 	lw	v0,72(a1)
  4065f0:	5040000d 	beqzl	v0,406628 <busybox_main+0xae8>
  4065f4:	82840000 	lb	a0,0(s4)
  4065f8:	8ca20010 	lw	v0,16(a1)
  4065fc:	8ca3001c 	lw	v1,28(a1)
  406600:	0043182b 	sltu	v1,v0,v1
  406604:	50600006 	beqzl	v1,406620 <busybox_main+0xae0>
  406608:	82840000 	lb	a0,0(s4)
  40660c:	92830000 	lbu	v1,0(s4)
  406610:	a0430000 	sb	v1,0(v0)
  406614:	24420001 	addiu	v0,v0,1
  406618:	0810198e 	j	406638 <busybox_main+0xaf8>
  40661c:	aca20010 	sw	v0,16(a1)
  406620:	0810198b 	j	40662c <busybox_main+0xaec>
  406624:	8f9983c0 	lw	t9,-31808(gp)
  406628:	8f998494 	lw	t9,-31596(gp)
  40662c:	0320f809 	jalr	t9
  406630:	00000000 	nop
  406634:	8fbc0010 	lw	gp,16(sp)
  406638:	8fa30024 	lw	v1,36(sp)
  40663c:	24040058 	li	a0,88
  406640:	a0640000 	sb	a0,0(v1)
  406644:	3c030046 	lui	v1,0x46
  406648:	8c625b28 	lw	v0,23336(v1)
  40664c:	8fa30020 	lw	v1,32(sp)
  406650:	2404ffff 	li	a0,-1
  406654:	00431021 	addu	v0,v0,v1
  406658:	8c420004 	lw	v0,4(v0)
  40665c:	5044000c 	beql	v0,a0,406690 <busybox_main+0xb50>
  406660:	26d60001 	addiu	s6,s6,1
  406664:	26730001 	addiu	s3,s3,1
  406668:	0053102a 	slt	v0,v0,s3
  40666c:	14400007 	bnez	v0,40668c <busybox_main+0xb4c>
  406670:	26940001 	addiu	s4,s4,1
  406674:	8f998038 	lw	t9,-32712(gp)
  406678:	0320f809 	jalr	t9
  40667c:	02002021 	move	a0,s0
  406680:	0262102b 	sltu	v0,s3,v0
  406684:	1440ffd3 	bnez	v0,4065d4 <busybox_main+0xa94>
  406688:	8fbc0010 	lw	gp,16(sp)
  40668c:	26d60001 	addiu	s6,s6,1
  406690:	8ee25b2c 	lw	v0,23340(s7)
  406694:	02c2102b 	sltu	v0,s6,v0
  406698:	1440ffc8 	bnez	v0,4065bc <busybox_main+0xa7c>
  40669c:	8ea25b28 	lw	v0,23336(s5)
  4066a0:	8f828478 	lw	v0,-31624(gp)
  4066a4:	8c450000 	lw	a1,0(v0)
  4066a8:	8ca20048 	lw	v0,72(a1)
  4066ac:	1040000d 	beqz	v0,4066e4 <busybox_main+0xba4>
  4066b0:	8f998494 	lw	t9,-31596(gp)
  4066b4:	8ca20010 	lw	v0,16(a1)
  4066b8:	8ca3001c 	lw	v1,28(a1)
  4066bc:	0043182b 	sltu	v1,v0,v1
  4066c0:	10600005 	beqz	v1,4066d8 <busybox_main+0xb98>
  4066c4:	2403000a 	li	v1,10
  4066c8:	a0430000 	sb	v1,0(v0)
  4066cc:	24420001 	addiu	v0,v0,1
  4066d0:	081019bd 	j	4066f4 <busybox_main+0xbb4>
  4066d4:	aca20010 	sw	v0,16(a1)
  4066d8:	2404000a 	li	a0,10
  4066dc:	081019ba 	j	4066e8 <busybox_main+0xba8>
  4066e0:	8f9983c0 	lw	t9,-31808(gp)
  4066e4:	2404000a 	li	a0,10
  4066e8:	0320f809 	jalr	t9
  4066ec:	00000000 	nop
  4066f0:	8fbc0010 	lw	gp,16(sp)
  4066f4:	08101a78 	j	4069e0 <busybox_main+0xea0>
  4066f8:	03c02021 	move	a0,s8
  4066fc:	80454c50 	lb	a1,19536(v0)
  406700:	2402000a 	li	v0,10
  406704:	14a20030 	bne	a1,v0,4067c8 <busybox_main+0xc88>
  406708:	8f998410 	lw	t9,-31728(gp)
  40670c:	3c040046 	lui	a0,0x46
  406710:	8c834c54 	lw	v1,19540(a0)
  406714:	2402ffff 	li	v0,-1
  406718:	14620008 	bne	v1,v0,40673c <busybox_main+0xbfc>
  40671c:	8e235b30 	lw	v1,23344(s1)
  406720:	8e225b30 	lw	v0,23344(s1)
  406724:	8ea35b28 	lw	v1,23336(s5)
  406728:	000210c0 	sll	v0,v0,0x3
  40672c:	00621021 	addu	v0,v1,v0
  406730:	8c420000 	lw	v0,0(v0)
  406734:	ac824c54 	sw	v0,19540(a0)
  406738:	8e235b30 	lw	v1,23344(s1)
  40673c:	8ee65b2c 	lw	a2,23340(s7)
  406740:	0066102b 	sltu	v0,v1,a2
  406744:	104000aa 	beqz	v0,4069f0 <busybox_main+0xeb0>
  406748:	8c824c54 	lw	v0,19540(a0)
  40674c:	0242282b 	sltu	a1,s2,v0
  406750:	14a000a7 	bnez	a1,4069f0 <busybox_main+0xeb0>
  406754:	8ea55b28 	lw	a1,23336(s5)
  406758:	081019ec 	j	4067b0 <busybox_main+0xc70>
  40675c:	2408ffff 	li	t0,-1
  406760:	00a73821 	addu	a3,a1,a3
  406764:	8ce70004 	lw	a3,4(a3)
  406768:	10e80004 	beq	a3,t0,40677c <busybox_main+0xc3c>
  40676c:	24420001 	addiu	v0,v0,1
  406770:	00e2382a 	slt	a3,a3,v0
  406774:	10e0000f 	beqz	a3,4067b4 <busybox_main+0xc74>
  406778:	0052382b 	sltu	a3,v0,s2
  40677c:	24630001 	addiu	v1,v1,1
  406780:	0066382b 	sltu	a3,v1,a2
  406784:	50e00008 	beqzl	a3,4067a8 <busybox_main+0xc68>
  406788:	ac824c54 	sw	v0,19540(a0)
  40678c:	000310c0 	sll	v0,v1,0x3
  406790:	00a21021 	addu	v0,a1,v0
  406794:	8c420000 	lw	v0,0(v0)
  406798:	0242382b 	sltu	a3,s2,v0
  40679c:	10e00005 	beqz	a3,4067b4 <busybox_main+0xc74>
  4067a0:	0052382b 	sltu	a3,v0,s2
  4067a4:	ac824c54 	sw	v0,19540(a0)
  4067a8:	08101a7c 	j	4069f0 <busybox_main+0xeb0>
  4067ac:	ae235b30 	sw	v1,23344(s1)
  4067b0:	0052382b 	sltu	a3,v0,s2
  4067b4:	14e0ffea 	bnez	a3,406760 <busybox_main+0xc20>
  4067b8:	000338c0 	sll	a3,v1,0x3
  4067bc:	ac824c54 	sw	v0,19540(a0)
  4067c0:	081019fd 	j	4067f4 <busybox_main+0xcb4>
  4067c4:	ae235b30 	sw	v1,23344(s1)
  4067c8:	afb0001c 	sw	s0,28(sp)
  4067cc:	a3a50018 	sb	a1,24(sp)
  4067d0:	a3a00019 	sb	zero,25(sp)
  4067d4:	0320f809 	jalr	t9
  4067d8:	02002021 	move	a0,s0
  4067dc:	1440000a 	bnez	v0,406808 <busybox_main+0xcc8>
  4067e0:	8fbc0010 	lw	gp,16(sp)
  4067e4:	3c030046 	lui	v1,0x46
  4067e8:	8c625b24 	lw	v0,23332(v1)
  4067ec:	14400081 	bnez	v0,4069f4 <busybox_main+0xeb4>
  4067f0:	8f9983c8 	lw	t9,-31800(gp)
  4067f4:	8f998758 	lw	t9,-30888(gp)
  4067f8:	0320f809 	jalr	t9
  4067fc:	02002021 	move	a0,s0
  406800:	08101a7c 	j	4069f0 <busybox_main+0xeb0>
  406804:	8fbc0010 	lw	gp,16(sp)
  406808:	8f998038 	lw	t9,-32712(gp)
  40680c:	0320f809 	jalr	t9
  406810:	02002021 	move	a0,s0
  406814:	8fbc0010 	lw	gp,16(sp)
  406818:	00402021 	move	a0,v0
  40681c:	8f9980c4 	lw	t9,-32572(gp)
  406820:	0320f809 	jalr	t9
  406824:	24050001 	li	a1,1
  406828:	afa20028 	sw	v0,40(sp)
  40682c:	8fbc0010 	lw	gp,16(sp)
  406830:	afa00020 	sw	zero,32(sp)
  406834:	0000f021 	move	s8,zero
  406838:	2413ffff 	li	s3,-1
  40683c:	08101a5c 	j	406970 <busybox_main+0xe30>
  406840:	0000b021 	move	s6,zero
  406844:	001618c0 	sll	v1,s6,0x3
  406848:	00431021 	addu	v0,v0,v1
  40684c:	afa30024 	sw	v1,36(sp)
  406850:	08101a1c 	j	406870 <busybox_main+0xd30>
  406854:	8c540000 	lw	s4,0(v0)
  406858:	27a4001c 	addiu	a0,sp,28
  40685c:	0320f809 	jalr	t9
  406860:	27a50018 	addiu	a1,sp,24
  406864:	8fbc0010 	lw	gp,16(sp)
  406868:	afa20020 	sw	v0,32(sp)
  40686c:	26730001 	addiu	s3,s3,1
  406870:	8fa2001c 	lw	v0,28(sp)
  406874:	10400003 	beqz	v0,406884 <busybox_main+0xd44>
  406878:	0274102a 	slt	v0,s3,s4
  40687c:	1440fff6 	bnez	v0,406858 <busybox_main+0xd18>
  406880:	8f99849c 	lw	t9,-31588(gp)
  406884:	8fa30020 	lw	v1,32(sp)
  406888:	1060002b 	beqz	v1,406938 <busybox_main+0xdf8>
  40688c:	8fa2001c 	lw	v0,28(sp)
  406890:	16740029 	bne	s3,s4,406938 <busybox_main+0xdf8>
  406894:	8fa30028 	lw	v1,40(sp)
  406898:	00731821 	addu	v1,v1,s3
  40689c:	80620000 	lb	v0,0(v1)
  4068a0:	14400024 	bnez	v0,406934 <busybox_main+0xdf4>
  4068a4:	afa3002c 	sw	v1,44(sp)
  4068a8:	13c00018 	beqz	s8,40690c <busybox_main+0xdcc>
  4068ac:	8f848478 	lw	a0,-31624(gp)
  4068b0:	8c850000 	lw	a1,0(a0)
  4068b4:	8ca20048 	lw	v0,72(a1)
  4068b8:	1040000f 	beqz	v0,4068f8 <busybox_main+0xdb8>
  4068bc:	3c030046 	lui	v1,0x46
  4068c0:	8ca20010 	lw	v0,16(a1)
  4068c4:	8ca3001c 	lw	v1,28(a1)
  4068c8:	0043182b 	sltu	v1,v0,v1
  4068cc:	50600007 	beqzl	v1,4068ec <busybox_main+0xdac>
  4068d0:	3c020046 	lui	v0,0x46
  4068d4:	3c040046 	lui	a0,0x46
  4068d8:	90834c50 	lbu	v1,19536(a0)
  4068dc:	a0430000 	sb	v1,0(v0)
  4068e0:	24420001 	addiu	v0,v0,1
  4068e4:	08101a43 	j	40690c <busybox_main+0xdcc>
  4068e8:	aca20010 	sw	v0,16(a1)
  4068ec:	80444c50 	lb	a0,19536(v0)
  4068f0:	08101a40 	j	406900 <busybox_main+0xdc0>
  4068f4:	8f9983c0 	lw	t9,-31808(gp)
  4068f8:	80644c50 	lb	a0,19536(v1)
  4068fc:	8f998494 	lw	t9,-31596(gp)
  406900:	0320f809 	jalr	t9
  406904:	00000000 	nop
  406908:	8fbc0010 	lw	gp,16(sp)
  40690c:	8f828814 	lw	v0,-30700(gp)
  406910:	8f99840c 	lw	t9,-31732(gp)
  406914:	8fa40020 	lw	a0,32(sp)
  406918:	8c450000 	lw	a1,0(v0)
  40691c:	0320f809 	jalr	t9
  406920:	27de0001 	addiu	s8,s8,1
  406924:	8fa3002c 	lw	v1,44(sp)
  406928:	24020058 	li	v0,88
  40692c:	8fbc0010 	lw	gp,16(sp)
  406930:	a0620000 	sb	v0,0(v1)
  406934:	8fa2001c 	lw	v0,28(sp)
  406938:	1040000c 	beqz	v0,40696c <busybox_main+0xe2c>
  40693c:	3c040046 	lui	a0,0x46
  406940:	8c825b28 	lw	v0,23336(a0)
  406944:	8fa30024 	lw	v1,36(sp)
  406948:	2404ffff 	li	a0,-1
  40694c:	00431021 	addu	v0,v0,v1
  406950:	8c420004 	lw	v0,4(v0)
  406954:	50440006 	beql	v0,a0,406970 <busybox_main+0xe30>
  406958:	26d60001 	addiu	s6,s6,1
  40695c:	26940001 	addiu	s4,s4,1
  406960:	0054102a 	slt	v0,v0,s4
  406964:	1040ffc3 	beqz	v0,406874 <busybox_main+0xd34>
  406968:	8fa2001c 	lw	v0,28(sp)
  40696c:	26d60001 	addiu	s6,s6,1
  406970:	8ee25b2c 	lw	v0,23340(s7)
  406974:	02c2102b 	sltu	v0,s6,v0
  406978:	10400003 	beqz	v0,406988 <busybox_main+0xe48>
  40697c:	8fa2001c 	lw	v0,28(sp)
  406980:	1440ffb0 	bnez	v0,406844 <busybox_main+0xd04>
  406984:	8ea25b28 	lw	v0,23336(s5)
  406988:	8f828478 	lw	v0,-31624(gp)
  40698c:	8c450000 	lw	a1,0(v0)
  406990:	8ca20048 	lw	v0,72(a1)
  406994:	1040000d 	beqz	v0,4069cc <busybox_main+0xe8c>
  406998:	8f998494 	lw	t9,-31596(gp)
  40699c:	8ca20010 	lw	v0,16(a1)
  4069a0:	8ca3001c 	lw	v1,28(a1)
  4069a4:	0043182b 	sltu	v1,v0,v1
  4069a8:	10600005 	beqz	v1,4069c0 <busybox_main+0xe80>
  4069ac:	2403000a 	li	v1,10
  4069b0:	a0430000 	sb	v1,0(v0)
  4069b4:	24420001 	addiu	v0,v0,1
  4069b8:	08101a77 	j	4069dc <busybox_main+0xe9c>
  4069bc:	aca20010 	sw	v0,16(a1)
  4069c0:	2404000a 	li	a0,10
  4069c4:	08101a74 	j	4069d0 <busybox_main+0xe90>
  4069c8:	8f9983c0 	lw	t9,-31808(gp)
  4069cc:	2404000a 	li	a0,10
  4069d0:	0320f809 	jalr	t9
  4069d4:	00000000 	nop
  4069d8:	8fbc0010 	lw	gp,16(sp)
  4069dc:	8fa40028 	lw	a0,40(sp)
  4069e0:	8f9983c8 	lw	t9,-31800(gp)
  4069e4:	0320f809 	jalr	t9
  4069e8:	00000000 	nop
  4069ec:	8fbc0010 	lw	gp,16(sp)
  4069f0:	8f9983c8 	lw	t9,-31800(gp)
  4069f4:	0320f809 	jalr	t9
  4069f8:	02002021 	move	a0,s0
  4069fc:	8fbc0010 	lw	gp,16(sp)
  406a00:	26520001 	addiu	s2,s2,1
  406a04:	8f9980c8 	lw	t9,-32568(gp)
  406a08:	0320f809 	jalr	t9
  406a0c:	8fa40058 	lw	a0,88(sp)
  406a10:	00408021 	move	s0,v0
  406a14:	1440fed8 	bnez	v0,406578 <busybox_main+0xa38>
  406a18:	8fbc0010 	lw	gp,16(sp)
  406a1c:	8fbf0054 	lw	ra,84(sp)
  406a20:	8fbe0050 	lw	s8,80(sp)
  406a24:	8fb7004c 	lw	s7,76(sp)
  406a28:	8fb60048 	lw	s6,72(sp)
  406a2c:	8fb50044 	lw	s5,68(sp)
  406a30:	8fb40040 	lw	s4,64(sp)
  406a34:	8fb3003c 	lw	s3,60(sp)
  406a38:	8fb20038 	lw	s2,56(sp)
  406a3c:	8fb10034 	lw	s1,52(sp)
  406a40:	8fb00030 	lw	s0,48(sp)
  406a44:	03e00008 	jr	ra
  406a48:	27bd0058 	addiu	sp,sp,88
  406a4c:	3c1c0047 	lui	gp,0x47
  406a50:	279cd250 	addiu	gp,gp,-11696
  406a54:	8f8280cc 	lw	v0,-32564(gp)
  406a58:	3c030045 	lui	v1,0x45
  406a5c:	27bdff90 	addiu	sp,sp,-112
  406a60:	2463bac0 	addiu	v1,v1,-17728
  406a64:	afb30054 	sw	s3,84(sp)
  406a68:	afb20050 	sw	s2,80(sp)
  406a6c:	afb1004c 	sw	s1,76(sp)
  406a70:	afb00048 	sw	s0,72(sp)
  406a74:	afbc0020 	sw	gp,32(sp)
  406a78:	afbf006c 	sw	ra,108(sp)
  406a7c:	afbe0068 	sw	s8,104(sp)
  406a80:	afb70064 	sw	s7,100(sp)
  406a84:	afb60060 	sw	s6,96(sp)
  406a88:	afb5005c 	sw	s5,92(sp)
  406a8c:	afb40058 	sw	s4,88(sp)
  406a90:	ac430000 	sw	v1,0(v0)
  406a94:	27a20038 	addiu	v0,sp,56
  406a98:	8f998080 	lw	t9,-32640(gp)
  406a9c:	afa20010 	sw	v0,16(sp)
  406aa0:	afa20014 	sw	v0,20(sp)
  406aa4:	3c060045 	lui	a2,0x45
  406aa8:	27a20034 	addiu	v0,sp,52
  406aac:	afa20018 	sw	v0,24(sp)
  406ab0:	24c6bc60 	addiu	a2,a2,-17312
  406ab4:	27a70038 	addiu	a3,sp,56
  406ab8:	00808821 	move	s1,a0
  406abc:	0320f809 	jalr	t9
  406ac0:	00a09021 	move	s2,a1
  406ac4:	00408021 	move	s0,v0
  406ac8:	3c130046 	lui	s3,0x46
  406acc:	30420007 	andi	v0,v0,0x7
  406ad0:	8fbc0020 	lw	gp,32(sp)
  406ad4:	14400004 	bnez	v0,406ae8 <busybox_main+0xfa8>
  406ad8:	a2625b20 	sb	v0,23328(s3)
  406adc:	3c040045 	lui	a0,0x45
  406ae0:	08101abe 	j	406af8 <busybox_main+0xfb8>
  406ae4:	2484bad4 	addiu	a0,a0,-17708
  406ae8:	06010006 	bgez	s0,406b04 <busybox_main+0xfc4>
  406aec:	8fa20038 	lw	v0,56(sp)
  406af0:	3c040045 	lui	a0,0x45
  406af4:	2484bb0c 	addiu	a0,a0,-17652
  406af8:	8f998030 	lw	t9,-32720(gp)
  406afc:	0320f809 	jalr	t9
  406b00:	00000000 	nop
  406b04:	3c1e0045 	lui	s8,0x45
  406b08:	afa20030 	sw	v0,48(sp)
  406b0c:	afa0002c 	sw	zero,44(sp)
  406b10:	0000a021 	move	s4,zero
  406b14:	3c170045 	lui	s7,0x45
  406b18:	3c160046 	lui	s6,0x46
  406b1c:	3c150046 	lui	s5,0x46
  406b20:	08101b2d 	j	406cb4 <busybox_main+0x1174>
  406b24:	27debb34 	addiu	s8,s8,-17612
  406b28:	8f998038 	lw	t9,-32712(gp)
  406b2c:	0320f809 	jalr	t9
  406b30:	00402021 	move	a0,v0
  406b34:	1040005f 	beqz	v0,406cb4 <busybox_main+0x1174>
  406b38:	8fbc0020 	lw	gp,32(sp)
  406b3c:	8f99849c 	lw	t9,-31588(gp)
  406b40:	27a4002c 	addiu	a0,sp,44
  406b44:	0320f809 	jalr	t9
  406b48:	26e52434 	addiu	a1,s7,9268
  406b4c:	14400008 	bnez	v0,406b70 <busybox_main+0x1030>
  406b50:	8fbc0020 	lw	gp,32(sp)
  406b54:	8f8284ac 	lw	v0,-31572(gp)
  406b58:	8f99840c 	lw	t9,-31732(gp)
  406b5c:	8c450000 	lw	a1,0(v0)
  406b60:	0320f809 	jalr	t9
  406b64:	03c02021 	move	a0,s8
  406b68:	08101af1 	j	406bc4 <busybox_main+0x1084>
  406b6c:	8fbc0020 	lw	gp,32(sp)
  406b70:	8f998038 	lw	t9,-32712(gp)
  406b74:	00402021 	move	a0,v0
  406b78:	0320f809 	jalr	t9
  406b7c:	afa20040 	sw	v0,64(sp)
  406b80:	0000a021 	move	s4,zero
  406b84:	8fbc0020 	lw	gp,32(sp)
  406b88:	1040000e 	beqz	v0,406bc4 <busybox_main+0x1084>
  406b8c:	8fa30040 	lw	v1,64(sp)
  406b90:	8f998718 	lw	t9,-30952(gp)
  406b94:	00602021 	move	a0,v1
  406b98:	27a50028 	addiu	a1,sp,40
  406b9c:	0320f809 	jalr	t9
  406ba0:	2406000a 	li	a2,10
  406ba4:	8fa30028 	lw	v1,40(sp)
  406ba8:	80630000 	lb	v1,0(v1)
  406bac:	1460002e 	bnez	v1,406c68 <busybox_main+0x1128>
  406bb0:	8fbc0020 	lw	gp,32(sp)
  406bb4:	0440002d 	bltz	v0,406c6c <busybox_main+0x112c>
  406bb8:	3c040045 	lui	a0,0x45
  406bbc:	2454ffff 	addiu	s4,v0,-1
  406bc0:	0042a00a 	movz	s4,v0,v0
  406bc4:	8f99849c 	lw	t9,-31588(gp)
  406bc8:	3c050045 	lui	a1,0x45
  406bcc:	27a4002c 	addiu	a0,sp,44
  406bd0:	0320f809 	jalr	t9
  406bd4:	24a52434 	addiu	a1,a1,9268
  406bd8:	1040001c 	beqz	v0,406c4c <busybox_main+0x110c>
  406bdc:	8fbc0020 	lw	gp,32(sp)
  406be0:	8f998038 	lw	t9,-32712(gp)
  406be4:	00402021 	move	a0,v0
  406be8:	0320f809 	jalr	t9
  406bec:	afa20040 	sw	v0,64(sp)
  406bf0:	8fbc0020 	lw	gp,32(sp)
  406bf4:	10400017 	beqz	v0,406c54 <busybox_main+0x1114>
  406bf8:	8fa30040 	lw	v1,64(sp)
  406bfc:	8f998718 	lw	t9,-30952(gp)
  406c00:	00602021 	move	a0,v1
  406c04:	27a50028 	addiu	a1,sp,40
  406c08:	0320f809 	jalr	t9
  406c0c:	2406000a 	li	a2,10
  406c10:	8fa30028 	lw	v1,40(sp)
  406c14:	80630000 	lb	v1,0(v1)
  406c18:	14600013 	bnez	v1,406c68 <busybox_main+0x1128>
  406c1c:	8fbc0020 	lw	gp,32(sp)
  406c20:	04400012 	bltz	v0,406c6c <busybox_main+0x112c>
  406c24:	3c040045 	lui	a0,0x45
  406c28:	54400004 	bnezl	v0,406c3c <busybox_main+0x10fc>
  406c2c:	2443ffff 	addiu	v1,v0,-1
  406c30:	3c027fff 	lui	v0,0x7fff
  406c34:	3442ffff 	ori	v0,v0,0xffff
  406c38:	2443ffff 	addiu	v1,v0,-1
  406c3c:	00742026 	xor	a0,v1,s4
  406c40:	2402ffff 	li	v0,-1
  406c44:	08101b17 	j	406c5c <busybox_main+0x111c>
  406c48:	0044180a 	movz	v1,v0,a0
  406c4c:	08101b17 	j	406c5c <busybox_main+0x111c>
  406c50:	2403ffff 	li	v1,-1
  406c54:	3c037fff 	lui	v1,0x7fff
  406c58:	3463ffff 	ori	v1,v1,0xffff
  406c5c:	8fa2002c 	lw	v0,44(sp)
  406c60:	50400004 	beqzl	v0,406c74 <busybox_main+0x1134>
  406c64:	8ea55b2c 	lw	a1,23340(s5)
  406c68:	3c040045 	lui	a0,0x45
  406c6c:	08101abe 	j	406af8 <busybox_main+0xfb8>
  406c70:	2484bb6c 	addiu	a0,a0,-17556
  406c74:	8f998034 	lw	t9,-32716(gp)
  406c78:	8ec45b28 	lw	a0,23336(s6)
  406c7c:	24a50001 	addiu	a1,a1,1
  406c80:	aea55b2c 	sw	a1,23340(s5)
  406c84:	afa30040 	sw	v1,64(sp)
  406c88:	0320f809 	jalr	t9
  406c8c:	000528c0 	sll	a1,a1,0x3
  406c90:	8ea45b2c 	lw	a0,23340(s5)
  406c94:	8fa30040 	lw	v1,64(sp)
  406c98:	2484ffff 	addiu	a0,a0,-1
  406c9c:	000420c0 	sll	a0,a0,0x3
  406ca0:	aec25b28 	sw	v0,23336(s6)
  406ca4:	00441021 	addu	v0,v0,a0
  406ca8:	8fbc0020 	lw	gp,32(sp)
  406cac:	ac540000 	sw	s4,0(v0)
  406cb0:	ac430004 	sw	v1,4(v0)
  406cb4:	8f99849c 	lw	t9,-31588(gp)
  406cb8:	3c050045 	lui	a1,0x45
  406cbc:	27a40030 	addiu	a0,sp,48
  406cc0:	0320f809 	jalr	t9
  406cc4:	24a51c1c 	addiu	a1,a1,7196
  406cc8:	afa2002c 	sw	v0,44(sp)
  406ccc:	1440ff96 	bnez	v0,406b28 <busybox_main+0xfe8>
  406cd0:	8fbc0020 	lw	gp,32(sp)
  406cd4:	3c020046 	lui	v0,0x46
  406cd8:	8c455b2c 	lw	a1,23340(v0)
  406cdc:	14a00004 	bnez	a1,406cf0 <busybox_main+0x11b0>
  406ce0:	3c020046 	lui	v0,0x46
  406ce4:	3c040045 	lui	a0,0x45
  406ce8:	08101abe 	j	406af8 <busybox_main+0xfb8>
  406cec:	2484bb88 	addiu	a0,a0,-17528
  406cf0:	8f99878c 	lw	t9,-30836(gp)
  406cf4:	8c445b28 	lw	a0,23336(v0)
  406cf8:	3c070040 	lui	a3,0x40
  406cfc:	24060008 	li	a2,8
  406d00:	0320f809 	jalr	t9
  406d04:	24e76500 	addiu	a3,a3,25856
  406d08:	32020008 	andi	v0,s0,0x8
  406d0c:	1040000e 	beqz	v0,406d48 <busybox_main+0x1208>
  406d10:	8fbc0020 	lw	gp,32(sp)
  406d14:	8f998038 	lw	t9,-32712(gp)
  406d18:	0320f809 	jalr	t9
  406d1c:	8fa40034 	lw	a0,52(sp)
  406d20:	2c420002 	sltiu	v0,v0,2
  406d24:	14400004 	bnez	v0,406d38 <busybox_main+0x11f8>
  406d28:	8fbc0020 	lw	gp,32(sp)
  406d2c:	3c040045 	lui	a0,0x45
  406d30:	08101abe 	j	406af8 <busybox_main+0xfb8>
  406d34:	2484bba4 	addiu	a0,a0,-17500
  406d38:	8fa20034 	lw	v0,52(sp)
  406d3c:	90430000 	lbu	v1,0(v0)
  406d40:	3c020046 	lui	v0,0x46
  406d44:	a0434c50 	sb	v1,19536(v0)
  406d48:	3c020046 	lui	v0,0x46
  406d4c:	32100010 	andi	s0,s0,0x10
  406d50:	82635b20 	lb	v1,23328(s3)
  406d54:	ac505b24 	sw	s0,23332(v0)
  406d58:	24020004 	li	v0,4
  406d5c:	1062000d 	beq	v1,v0,406d94 <busybox_main+0x1254>
  406d60:	8f82862c 	lw	v0,-31188(gp)
  406d64:	12000004 	beqz	s0,406d78 <busybox_main+0x1238>
  406d68:	3c020046 	lui	v0,0x46
  406d6c:	3c040045 	lui	a0,0x45
  406d70:	08101abe 	j	406af8 <busybox_main+0xfb8>
  406d74:	2484bbd0 	addiu	a0,a0,-17456
  406d78:	80434c50 	lb	v1,19536(v0)
  406d7c:	24020009 	li	v0,9
  406d80:	10620004 	beq	v1,v0,406d94 <busybox_main+0x1254>
  406d84:	8f82862c 	lw	v0,-31188(gp)
  406d88:	3c040045 	lui	a0,0x45
  406d8c:	08101abe 	j	406af8 <busybox_main+0xfb8>
  406d90:	2484bc1c 	addiu	a0,a0,-17380
  406d94:	8c500000 	lw	s0,0(v0)
  406d98:	00101080 	sll	v0,s0,0x2
  406d9c:	02429021 	addu	s2,s2,v0
  406da0:	8e440000 	lw	a0,0(s2)
  406da4:	10800007 	beqz	a0,406dc4 <busybox_main+0x1284>
  406da8:	8f9984f0 	lw	t9,-31504(gp)
  406dac:	3c050045 	lui	a1,0x45
  406db0:	0320f809 	jalr	t9
  406db4:	24a52434 	addiu	a1,a1,9268
  406db8:	00009821 	move	s3,zero
  406dbc:	14400018 	bnez	v0,406e20 <busybox_main+0x12e0>
  406dc0:	8fbc0020 	lw	gp,32(sp)
  406dc4:	8f828620 	lw	v0,-31200(gp)
  406dc8:	0c10194a 	jal	406528 <busybox_main+0x9e8>
  406dcc:	8c440000 	lw	a0,0(v0)
  406dd0:	08101b8e 	j	406e38 <busybox_main+0x12f8>
  406dd4:	8fbf006c 	lw	ra,108(sp)
  406dd8:	8f9980d0 	lw	t9,-32560(gp)
  406ddc:	8c440000 	lw	a0,0(v0)
  406de0:	0320f809 	jalr	t9
  406de4:	02802821 	move	a1,s4
  406de8:	1040000a 	beqz	v0,406e14 <busybox_main+0x12d4>
  406dec:	8fbc0020 	lw	gp,32(sp)
  406df0:	00402021 	move	a0,v0
  406df4:	0c10194a 	jal	406528 <busybox_main+0x9e8>
  406df8:	afa20040 	sw	v0,64(sp)
  406dfc:	8fbc0020 	lw	gp,32(sp)
  406e00:	8fa20040 	lw	v0,64(sp)
  406e04:	8f99852c 	lw	t9,-31444(gp)
  406e08:	0320f809 	jalr	t9
  406e0c:	00402021 	move	a0,v0
  406e10:	8fbc0020 	lw	gp,32(sp)
  406e14:	26100001 	addiu	s0,s0,1
  406e18:	08101b8a 	j	406e28 <busybox_main+0x12e8>
  406e1c:	26730004 	addiu	s3,s3,4
  406e20:	3c140045 	lui	s4,0x45
  406e24:	2694cc78 	addiu	s4,s4,-13192
  406e28:	0211102a 	slt	v0,s0,s1
  406e2c:	1440ffea 	bnez	v0,406dd8 <busybox_main+0x1298>
  406e30:	02531021 	addu	v0,s2,s3
  406e34:	8fbf006c 	lw	ra,108(sp)
  406e38:	00001021 	move	v0,zero
  406e3c:	8fbe0068 	lw	s8,104(sp)
  406e40:	8fb70064 	lw	s7,100(sp)
  406e44:	8fb60060 	lw	s6,96(sp)
  406e48:	8fb5005c 	lw	s5,92(sp)
  406e4c:	8fb40058 	lw	s4,88(sp)
  406e50:	8fb30054 	lw	s3,84(sp)
  406e54:	8fb20050 	lw	s2,80(sp)
  406e58:	8fb1004c 	lw	s1,76(sp)
  406e5c:	8fb00048 	lw	s0,72(sp)
  406e60:	03e00008 	jr	ra
  406e64:	27bd0070 	addiu	sp,sp,112
	...
  406e70:	3c1c0047 	lui	gp,0x47
  406e74:	279cd250 	addiu	gp,gp,-11696
  406e78:	8f8280cc 	lw	v0,-32564(gp)
  406e7c:	3c030045 	lui	v1,0x45
  406e80:	27bdfe70 	addiu	sp,sp,-400
  406e84:	2463bd4c 	addiu	v1,v1,-17076
  406e88:	afb40184 	sw	s4,388(sp)
  406e8c:	afb30180 	sw	s3,384(sp)
  406e90:	afb10178 	sw	s1,376(sp)
  406e94:	afbc0020 	sw	gp,32(sp)
  406e98:	afbf018c 	sw	ra,396(sp)
  406e9c:	afb50188 	sw	s5,392(sp)
  406ea0:	afb2017c 	sw	s2,380(sp)
  406ea4:	afb00174 	sw	s0,372(sp)
  406ea8:	ac430000 	sw	v1,0(v0)
  406eac:	27a2002c 	addiu	v0,sp,44
  406eb0:	8f998080 	lw	t9,-32640(gp)
  406eb4:	27a70038 	addiu	a3,sp,56
  406eb8:	afa20014 	sw	v0,20(sp)
  406ebc:	3c060045 	lui	a2,0x45
  406ec0:	27a20028 	addiu	v0,sp,40
  406ec4:	afa00038 	sw	zero,56(sp)
  406ec8:	afa0002c 	sw	zero,44(sp)
  406ecc:	afa70010 	sw	a3,16(sp)
  406ed0:	afa20018 	sw	v0,24(sp)
  406ed4:	24040001 	li	a0,1
  406ed8:	24c6bd58 	addiu	a2,a2,-17064
  406edc:	0320f809 	jalr	t9
  406ee0:	00a08821 	move	s1,a1
  406ee4:	30530004 	andi	s3,v0,0x4
  406ee8:	8fbc0020 	lw	gp,32(sp)
  406eec:	12600007 	beqz	s3,406f0c <busybox_main+0x13cc>
  406ef0:	0040a021 	move	s4,v0
  406ef4:	8f9986dc 	lw	t9,-31012(gp)
  406ef8:	3c040045 	lui	a0,0x45
  406efc:	0320f809 	jalr	t9
  406f00:	2484bd64 	addiu	a0,a0,-17052
  406f04:	14400142 	bnez	v0,407410 <busybox_main+0x18d0>
  406f08:	8fbc0020 	lw	gp,32(sp)
  406f0c:	068001bf 	bltz	s4,40760c <busybox_main+0x1acc>
  406f10:	8f998094 	lw	t9,-32620(gp)
  406f14:	32820020 	andi	v0,s4,0x20
  406f18:	1040003b 	beqz	v0,407008 <busybox_main+0x14c8>
  406f1c:	00009021 	move	s2,zero
  406f20:	8fa40028 	lw	a0,40(sp)
  406f24:	10800037 	beqz	a0,407004 <busybox_main+0x14c4>
  406f28:	8f998038 	lw	t9,-32712(gp)
  406f2c:	0320f809 	jalr	t9
  406f30:	00000000 	nop
  406f34:	00408021 	move	s0,v0
  406f38:	28420005 	slti	v0,v0,5
  406f3c:	1040000c 	beqz	v0,406f70 <busybox_main+0x1430>
  406f40:	8fbc0020 	lw	gp,32(sp)
  406f44:	8f9985e4 	lw	t9,-31260(gp)
  406f48:	8fa40028 	lw	a0,40(sp)
  406f4c:	3c050045 	lui	a1,0x45
  406f50:	24a580bc 	addiu	a1,a1,-32580
  406f54:	0320f809 	jalr	t9
  406f58:	02003021 	move	a2,s0
  406f5c:	24120001 	li	s2,1
  406f60:	10400029 	beqz	v0,407008 <busybox_main+0x14c8>
  406f64:	8fbc0020 	lw	gp,32(sp)
  406f68:	08101be0 	j	406f80 <busybox_main+0x1440>
  406f6c:	8f9985e4 	lw	t9,-31260(gp)
  406f70:	24020005 	li	v0,5
  406f74:	1602000c 	bne	s0,v0,406fa8 <busybox_main+0x1468>
  406f78:	2a020008 	slti	v0,s0,8
  406f7c:	8f9985e4 	lw	t9,-31260(gp)
  406f80:	8fa40028 	lw	a0,40(sp)
  406f84:	3c050045 	lui	a1,0x45
  406f88:	24a5bd6c 	addiu	a1,a1,-17044
  406f8c:	0320f809 	jalr	t9
  406f90:	02003021 	move	a2,s0
  406f94:	24120002 	li	s2,2
  406f98:	1040001b 	beqz	v0,407008 <busybox_main+0x14c8>
  406f9c:	8fbc0020 	lw	gp,32(sp)
  406fa0:	08101bed 	j	406fb4 <busybox_main+0x1474>
  406fa4:	8fb50028 	lw	s5,40(sp)
  406fa8:	10400198 	beqz	v0,40760c <busybox_main+0x1acc>
  406fac:	8f998094 	lw	t9,-32620(gp)
  406fb0:	8fb50028 	lw	s5,40(sp)
  406fb4:	8f9985e4 	lw	t9,-31260(gp)
  406fb8:	3c050045 	lui	a1,0x45
  406fbc:	02a02021 	move	a0,s5
  406fc0:	24a5bd74 	addiu	a1,a1,-17036
  406fc4:	0320f809 	jalr	t9
  406fc8:	02003021 	move	a2,s0
  406fcc:	24120003 	li	s2,3
  406fd0:	1040000d 	beqz	v0,407008 <busybox_main+0x14c8>
  406fd4:	8fbc0020 	lw	gp,32(sp)
  406fd8:	8f9985e4 	lw	t9,-31260(gp)
  406fdc:	3c050045 	lui	a1,0x45
  406fe0:	02a02021 	move	a0,s5
  406fe4:	24a5bd7c 	addiu	a1,a1,-17028
  406fe8:	0320f809 	jalr	t9
  406fec:	02003021 	move	a2,s0
  406ff0:	24120004 	li	s2,4
  406ff4:	10400004 	beqz	v0,407008 <busybox_main+0x14c8>
  406ff8:	8fbc0020 	lw	gp,32(sp)
  406ffc:	08101d83 	j	40760c <busybox_main+0x1acc>
  407000:	8f998094 	lw	t9,-32620(gp)
  407004:	24120001 	li	s2,1
  407008:	8f82862c 	lw	v0,-31188(gp)
  40700c:	8c420000 	lw	v0,0(v0)
  407010:	1c400009 	bgtz	v0,407038 <busybox_main+0x14f8>
  407014:	8fa30038 	lw	v1,56(sp)
  407018:	00021880 	sll	v1,v0,0x2
  40701c:	02231821 	addu	v1,s1,v1
  407020:	8c700000 	lw	s0,0(v1)
  407024:	2403002b 	li	v1,43
  407028:	82040000 	lb	a0,0(s0)
  40702c:	10830008 	beq	a0,v1,407050 <busybox_main+0x1510>
  407030:	26100001 	addiu	s0,s0,1
  407034:	8fa30038 	lw	v1,56(sp)
  407038:	14600005 	bnez	v1,407050 <busybox_main+0x1510>
  40703c:	00008021 	move	s0,zero
  407040:	00021080 	sll	v0,v0,0x2
  407044:	02228821 	addu	s1,s1,v0
  407048:	8e220000 	lw	v0,0(s1)
  40704c:	afa20038 	sw	v0,56(sp)
  407050:	8fa4002c 	lw	a0,44(sp)
  407054:	1080000d 	beqz	a0,40708c <busybox_main+0x154c>
  407058:	8f9987f0 	lw	t9,-30736(gp)
  40705c:	0320f809 	jalr	t9
  407060:	27a500a0 	addiu	a1,sp,160
  407064:	10400006 	beqz	v0,407080 <busybox_main+0x1540>
  407068:	8fbc0020 	lw	gp,32(sp)
  40706c:	3c040045 	lui	a0,0x45
  407070:	2484bd84 	addiu	a0,a0,-17020
  407074:	8fa5002c 	lw	a1,44(sp)
  407078:	08101cc0 	j	407300 <busybox_main+0x17c0>
  40707c:	8f9980d4 	lw	t9,-32556(gp)
  407080:	8fa200e8 	lw	v0,232(sp)
  407084:	08101c27 	j	40709c <busybox_main+0x155c>
  407088:	afa20030 	sw	v0,48(sp)
  40708c:	8f998510 	lw	t9,-31472(gp)
  407090:	0320f809 	jalr	t9
  407094:	27a40030 	addiu	a0,sp,48
  407098:	8fbc0020 	lw	gp,32(sp)
  40709c:	8f998544 	lw	t9,-31420(gp)
  4070a0:	0320f809 	jalr	t9
  4070a4:	27a40030 	addiu	a0,sp,48
  4070a8:	8fbc0020 	lw	gp,32(sp)
  4070ac:	27a40074 	addiu	a0,sp,116
  4070b0:	8f998770 	lw	t9,-30864(gp)
  4070b4:	00402821 	move	a1,v0
  4070b8:	0320f809 	jalr	t9
  4070bc:	2406002c 	li	a2,44
  4070c0:	8fb10038 	lw	s1,56(sp)
  4070c4:	122000d6 	beqz	s1,407420 <busybox_main+0x18e0>
  4070c8:	8fbc0020 	lw	gp,32(sp)
  4070cc:	8f998410 	lw	t9,-31728(gp)
  4070d0:	afa00074 	sw	zero,116(sp)
  4070d4:	afa00078 	sw	zero,120(sp)
  4070d8:	afa0007c 	sw	zero,124(sp)
  4070dc:	02202021 	move	a0,s1
  4070e0:	0320f809 	jalr	t9
  4070e4:	2405003a 	li	a1,58
  4070e8:	1040008e 	beqz	v0,407324 <busybox_main+0x17e4>
  4070ec:	8fbc0020 	lw	gp,32(sp)
  4070f0:	8f998770 	lw	t9,-30864(gp)
  4070f4:	27a40048 	addiu	a0,sp,72
  4070f8:	27a50074 	addiu	a1,sp,116
  4070fc:	0320f809 	jalr	t9
  407100:	2406002c 	li	a2,44
  407104:	8fbc0020 	lw	gp,32(sp)
  407108:	27a20048 	addiu	v0,sp,72
  40710c:	8f998580 	lw	t9,-31360(gp)
  407110:	3c050045 	lui	a1,0x45
  407114:	afa20010 	sw	v0,16(sp)
  407118:	02202021 	move	a0,s1
  40711c:	24a5bd9c 	addiu	a1,a1,-16996
  407120:	27a60050 	addiu	a2,sp,80
  407124:	0320f809 	jalr	t9
  407128:	27a7004c 	addiu	a3,sp,76
  40712c:	24030003 	li	v1,3
  407130:	10430075 	beq	v0,v1,407308 <busybox_main+0x17c8>
  407134:	8fbc0020 	lw	gp,32(sp)
  407138:	8f998770 	lw	t9,-30864(gp)
  40713c:	27a40048 	addiu	a0,sp,72
  407140:	27a50074 	addiu	a1,sp,116
  407144:	0320f809 	jalr	t9
  407148:	2406002c 	li	a2,44
  40714c:	8fbc0020 	lw	gp,32(sp)
  407150:	3c050045 	lui	a1,0x45
  407154:	8f998580 	lw	t9,-31360(gp)
  407158:	02202021 	move	a0,s1
  40715c:	24a5bdd0 	addiu	a1,a1,-16944
  407160:	27a60050 	addiu	a2,sp,80
  407164:	0320f809 	jalr	t9
  407168:	27a7004c 	addiu	a3,sp,76
  40716c:	24030002 	li	v1,2
  407170:	10430065 	beq	v0,v1,407308 <busybox_main+0x17c8>
  407174:	8fbc0020 	lw	gp,32(sp)
  407178:	8f998770 	lw	t9,-30864(gp)
  40717c:	27a40048 	addiu	a0,sp,72
  407180:	27a50074 	addiu	a1,sp,116
  407184:	0320f809 	jalr	t9
  407188:	2406002c 	li	a2,44
  40718c:	8fbc0020 	lw	gp,32(sp)
  407190:	27a20050 	addiu	v0,sp,80
  407194:	afa20010 	sw	v0,16(sp)
  407198:	27a2004c 	addiu	v0,sp,76
  40719c:	afa20014 	sw	v0,20(sp)
  4071a0:	8f998580 	lw	t9,-31360(gp)
  4071a4:	27a20048 	addiu	v0,sp,72
  4071a8:	3c050045 	lui	a1,0x45
  4071ac:	afa20018 	sw	v0,24(sp)
  4071b0:	02202021 	move	a0,s1
  4071b4:	24a5bda8 	addiu	a1,a1,-16984
  4071b8:	27a60058 	addiu	a2,sp,88
  4071bc:	0320f809 	jalr	t9
  4071c0:	27a70054 	addiu	a3,sp,84
  4071c4:	24150005 	li	s5,5
  4071c8:	10550045 	beq	v0,s5,4072e0 <busybox_main+0x17a0>
  4071cc:	8fbc0020 	lw	gp,32(sp)
  4071d0:	8f998770 	lw	t9,-30864(gp)
  4071d4:	27a40048 	addiu	a0,sp,72
  4071d8:	27a50074 	addiu	a1,sp,116
  4071dc:	0320f809 	jalr	t9
  4071e0:	2406002c 	li	a2,44
  4071e4:	8fbc0020 	lw	gp,32(sp)
  4071e8:	27a20050 	addiu	v0,sp,80
  4071ec:	afa20010 	sw	v0,16(sp)
  4071f0:	8f998580 	lw	t9,-31360(gp)
  4071f4:	27a2004c 	addiu	v0,sp,76
  4071f8:	3c050045 	lui	a1,0x45
  4071fc:	afa20014 	sw	v0,20(sp)
  407200:	02202021 	move	a0,s1
  407204:	24a5bdb8 	addiu	a1,a1,-16968
  407208:	27a60058 	addiu	a2,sp,88
  40720c:	0320f809 	jalr	t9
  407210:	27a70054 	addiu	a3,sp,84
  407214:	24030004 	li	v1,4
  407218:	10430031 	beq	v0,v1,4072e0 <busybox_main+0x17a0>
  40721c:	8fbc0020 	lw	gp,32(sp)
  407220:	8f998770 	lw	t9,-30864(gp)
  407224:	27a40048 	addiu	a0,sp,72
  407228:	27a50074 	addiu	a1,sp,116
  40722c:	0320f809 	jalr	t9
  407230:	2406002c 	li	a2,44
  407234:	27a20054 	addiu	v0,sp,84
  407238:	8fbc0020 	lw	gp,32(sp)
  40723c:	afa20010 	sw	v0,16(sp)
  407240:	27a20050 	addiu	v0,sp,80
  407244:	afa20014 	sw	v0,20(sp)
  407248:	27a2004c 	addiu	v0,sp,76
  40724c:	afa20018 	sw	v0,24(sp)
  407250:	8f998580 	lw	t9,-31360(gp)
  407254:	27a20048 	addiu	v0,sp,72
  407258:	3c050045 	lui	a1,0x45
  40725c:	afa2001c 	sw	v0,28(sp)
  407260:	02202021 	move	a0,s1
  407264:	24a5bdc4 	addiu	a1,a1,-16956
  407268:	27a6005c 	addiu	a2,sp,92
  40726c:	0320f809 	jalr	t9
  407270:	27a70058 	addiu	a3,sp,88
  407274:	24030006 	li	v1,6
  407278:	10430016 	beq	v0,v1,4072d4 <busybox_main+0x1794>
  40727c:	8fbc0020 	lw	gp,32(sp)
  407280:	8f998770 	lw	t9,-30864(gp)
  407284:	27a40048 	addiu	a0,sp,72
  407288:	27a50074 	addiu	a1,sp,116
  40728c:	0320f809 	jalr	t9
  407290:	2406002c 	li	a2,44
  407294:	8fbc0020 	lw	gp,32(sp)
  407298:	27a20054 	addiu	v0,sp,84
  40729c:	afa20010 	sw	v0,16(sp)
  4072a0:	27a20050 	addiu	v0,sp,80
  4072a4:	afa20014 	sw	v0,20(sp)
  4072a8:	8f998580 	lw	t9,-31360(gp)
  4072ac:	27a2004c 	addiu	v0,sp,76
  4072b0:	3c050045 	lui	a1,0x45
  4072b4:	afa20018 	sw	v0,24(sp)
  4072b8:	02202021 	move	a0,s1
  4072bc:	24a5bdd8 	addiu	a1,a1,-16936
  4072c0:	27a6005c 	addiu	a2,sp,92
  4072c4:	0320f809 	jalr	t9
  4072c8:	27a70058 	addiu	a3,sp,88
  4072cc:	14550008 	bne	v0,s5,4072f0 <busybox_main+0x17b0>
  4072d0:	8fbc0020 	lw	gp,32(sp)
  4072d4:	8fa2005c 	lw	v0,92(sp)
  4072d8:	2442f894 	addiu	v0,v0,-1900
  4072dc:	afa2005c 	sw	v0,92(sp)
  4072e0:	8fa20058 	lw	v0,88(sp)
  4072e4:	2442ffff 	addiu	v0,v0,-1
  4072e8:	08101cc2 	j	407308 <busybox_main+0x17c8>
  4072ec:	afa20058 	sw	v0,88(sp)
  4072f0:	8f8280d8 	lw	v0,-32552(gp)
  4072f4:	02202821 	move	a1,s1
  4072f8:	8c440000 	lw	a0,0(v0)
  4072fc:	8f998030 	lw	t9,-32720(gp)
  407300:	0320f809 	jalr	t9
  407304:	00000000 	nop
  407308:	8f998770 	lw	t9,-30864(gp)
  40730c:	27a40074 	addiu	a0,sp,116
  407310:	27a50048 	addiu	a1,sp,72
  407314:	0320f809 	jalr	t9
  407318:	2406002c 	li	a2,44
  40731c:	08101cf1 	j	4073c4 <busybox_main+0x1884>
  407320:	8fbc0020 	lw	gp,32(sp)
  407324:	27a2007c 	addiu	v0,sp,124
  407328:	afa20010 	sw	v0,16(sp)
  40732c:	27a20078 	addiu	v0,sp,120
  407330:	8f998580 	lw	t9,-31360(gp)
  407334:	afa20014 	sw	v0,20(sp)
  407338:	3c050045 	lui	a1,0x45
  40733c:	27a20088 	addiu	v0,sp,136
  407340:	afa20018 	sw	v0,24(sp)
  407344:	02202021 	move	a0,s1
  407348:	24a5bde8 	addiu	a1,a1,-16920
  40734c:	27a60084 	addiu	a2,sp,132
  407350:	0320f809 	jalr	t9
  407354:	27a70080 	addiu	a3,sp,128
  407358:	2442fffc 	addiu	v0,v0,-4
  40735c:	2c420002 	sltiu	v0,v0,2
  407360:	1040ffe3 	beqz	v0,4072f0 <busybox_main+0x17b0>
  407364:	8fbc0020 	lw	gp,32(sp)
  407368:	8f998410 	lw	t9,-31728(gp)
  40736c:	02202021 	move	a0,s1
  407370:	0320f809 	jalr	t9
  407374:	2405002e 	li	a1,46
  407378:	1040000a 	beqz	v0,4073a4 <busybox_main+0x1864>
  40737c:	8fbc0020 	lw	gp,32(sp)
  407380:	8f998580 	lw	t9,-31360(gp)
  407384:	3c050045 	lui	a1,0x45
  407388:	24440001 	addiu	a0,v0,1
  40738c:	24a5bdf8 	addiu	a1,a1,-16904
  407390:	0320f809 	jalr	t9
  407394:	27a60074 	addiu	a2,sp,116
  407398:	24030001 	li	v1,1
  40739c:	1443ffd4 	bne	v0,v1,4072f0 <busybox_main+0x17b0>
  4073a0:	8fbc0020 	lw	gp,32(sp)
  4073a4:	8fa20088 	lw	v0,136(sp)
  4073a8:	2843076c 	slti	v1,v0,1900
  4073ac:	14600002 	bnez	v1,4073b8 <busybox_main+0x1878>
  4073b0:	2442f894 	addiu	v0,v0,-1900
  4073b4:	afa20088 	sw	v0,136(sp)
  4073b8:	8fa20084 	lw	v0,132(sp)
  4073bc:	2442ffff 	addiu	v0,v0,-1
  4073c0:	afa20084 	sw	v0,132(sp)
  4073c4:	8f998610 	lw	t9,-31216(gp)
  4073c8:	2402ffff 	li	v0,-1
  4073cc:	afa20094 	sw	v0,148(sp)
  4073d0:	0320f809 	jalr	t9
  4073d4:	27a40074 	addiu	a0,sp,116
  4073d8:	afa20030 	sw	v0,48(sp)
  4073dc:	04410005 	bgez	v0,4073f4 <busybox_main+0x18b4>
  4073e0:	8fbc0020 	lw	gp,32(sp)
  4073e4:	8f8280d8 	lw	v0,-32552(gp)
  4073e8:	8fa50038 	lw	a1,56(sp)
  4073ec:	08101cbf 	j	4072fc <busybox_main+0x17bc>
  4073f0:	8c440000 	lw	a0,0(v0)
  4073f4:	1260000a 	beqz	s3,407420 <busybox_main+0x18e0>
  4073f8:	8f9986dc 	lw	t9,-31012(gp)
  4073fc:	3c040045 	lui	a0,0x45
  407400:	0320f809 	jalr	t9
  407404:	2484bd64 	addiu	a0,a0,-17052
  407408:	10400005 	beqz	v0,407420 <busybox_main+0x18e0>
  40740c:	8fbc0020 	lw	gp,32(sp)
  407410:	8f828050 	lw	v0,-32688(gp)
  407414:	8f998030 	lw	t9,-32720(gp)
  407418:	0320f809 	jalr	t9
  40741c:	8c440000 	lw	a0,0(v0)
  407420:	56000025 	bnezl	s0,4074b8 <busybox_main+0x1978>
  407424:	82020000 	lb	v0,0(s0)
  407428:	24020002 	li	v0,2
  40742c:	12420016 	beq	s2,v0,407488 <busybox_main+0x1948>
  407430:	2a420003 	slti	v0,s2,3
  407434:	10400006 	beqz	v0,407450 <busybox_main+0x1910>
  407438:	24020003 	li	v0,3
  40743c:	24020001 	li	v0,1
  407440:	56420016 	bnel	s2,v0,40749c <busybox_main+0x195c>
  407444:	32940001 	andi	s4,s4,0x1
  407448:	08101d35 	j	4074d4 <busybox_main+0x1994>
  40744c:	3c100045 	lui	s0,0x45
  407450:	12420008 	beq	s2,v0,407474 <busybox_main+0x1934>
  407454:	24020004 	li	v0,4
  407458:	56420010 	bnel	s2,v0,40749c <busybox_main+0x195c>
  40745c:	32940001 	andi	s4,s4,0x1
  407460:	5660001a 	bnezl	s3,4074cc <busybox_main+0x198c>
  407464:	3c100045 	lui	s0,0x45
  407468:	3c100045 	lui	s0,0x45
  40746c:	08101d3e 	j	4074f8 <busybox_main+0x19b8>
  407470:	2610bc84 	addiu	s0,s0,-17276
  407474:	52600019 	beqzl	s3,4074dc <busybox_main+0x199c>
  407478:	3c100045 	lui	s0,0x45
  40747c:	3c100045 	lui	s0,0x45
  407480:	08101d3e 	j	4074f8 <busybox_main+0x19b8>
  407484:	2610bd14 	addiu	s0,s0,-17132
  407488:	52600016 	beqzl	s3,4074e4 <busybox_main+0x19a4>
  40748c:	3c100045 	lui	s0,0x45
  407490:	3c100045 	lui	s0,0x45
  407494:	08101d3e 	j	4074f8 <busybox_main+0x19b8>
  407498:	2610bd04 	addiu	s0,s0,-17148
  40749c:	12800013 	beqz	s4,4074ec <busybox_main+0x19ac>
  4074a0:	3c100045 	lui	s0,0x45
  4074a4:	52600013 	beqzl	s3,4074f4 <busybox_main+0x19b4>
  4074a8:	3c100045 	lui	s0,0x45
  4074ac:	3c100045 	lui	s0,0x45
  4074b0:	08101d3e 	j	4074f8 <busybox_main+0x19b8>
  4074b4:	2610bce8 	addiu	s0,s0,-17176
  4074b8:	54400010 	bnezl	v0,4074fc <busybox_main+0x19bc>
  4074bc:	8f9985e4 	lw	t9,-31260(gp)
  4074c0:	2404000a 	li	a0,10
  4074c4:	08101d77 	j	4075dc <busybox_main+0x1a9c>
  4074c8:	8f998848 	lw	t9,-30648(gp)
  4074cc:	08101d3e 	j	4074f8 <busybox_main+0x19b8>
  4074d0:	2610bd24 	addiu	s0,s0,-17116
  4074d4:	08101d3e 	j	4074f8 <busybox_main+0x19b8>
  4074d8:	2610bcb0 	addiu	s0,s0,-17232
  4074dc:	08101d3e 	j	4074f8 <busybox_main+0x19b8>
  4074e0:	2610bc70 	addiu	s0,s0,-17296
  4074e4:	08101d3e 	j	4074f8 <busybox_main+0x19b8>
  4074e8:	2610bcbc 	addiu	s0,s0,-17220
  4074ec:	08101d3e 	j	4074f8 <busybox_main+0x19b8>
  4074f0:	2610bc98 	addiu	s0,s0,-17256
  4074f4:	2610bccc 	addiu	s0,s0,-17204
  4074f8:	8f9985e4 	lw	t9,-31260(gp)
  4074fc:	3c050045 	lui	a1,0x45
  407500:	02002021 	move	a0,s0
  407504:	24a5bdfc 	addiu	a1,a1,-16900
  407508:	0320f809 	jalr	t9
  40750c:	24060002 	li	a2,2
  407510:	14400003 	bnez	v0,407520 <busybox_main+0x19e0>
  407514:	8fbc0020 	lw	gp,32(sp)
  407518:	3c100045 	lui	s0,0x45
  40751c:	2610bd38 	addiu	s0,s0,-17096
  407520:	8f998610 	lw	t9,-31216(gp)
  407524:	0320f809 	jalr	t9
  407528:	27a40074 	addiu	a0,sp,116
  40752c:	8fbc0020 	lw	gp,32(sp)
  407530:	27a40034 	addiu	a0,sp,52
  407534:	8f998544 	lw	t9,-31420(gp)
  407538:	0320f809 	jalr	t9
  40753c:	afa20034 	sw	v0,52(sp)
  407540:	8fbc0020 	lw	gp,32(sp)
  407544:	240500c8 	li	a1,200
  407548:	8f998488 	lw	t9,-31608(gp)
  40754c:	02003021 	move	a2,s0
  407550:	00403821 	move	a3,v0
  407554:	27a400a0 	addiu	a0,sp,160
  407558:	0320f809 	jalr	t9
  40755c:	00408821 	move	s1,v0
  407560:	8fbc0020 	lw	gp,32(sp)
  407564:	8f998758 	lw	t9,-30888(gp)
  407568:	0320f809 	jalr	t9
  40756c:	27a400a0 	addiu	a0,sp,160
  407570:	8fbc0020 	lw	gp,32(sp)
  407574:	24040002 	li	a0,2
  407578:	8f998704 	lw	t9,-30972(gp)
  40757c:	24050003 	li	a1,3
  407580:	0320f809 	jalr	t9
  407584:	240600ff 	li	a2,255
  407588:	18400011 	blez	v0,4075d0 <busybox_main+0x1a90>
  40758c:	8fbc0020 	lw	gp,32(sp)
  407590:	8e230018 	lw	v1,24(s1)
  407594:	8f998638 	lw	t9,-31176(gp)
  407598:	afa3003c 	sw	v1,60(sp)
  40759c:	8e230008 	lw	v1,8(s1)
  4075a0:	00402021 	move	a0,v0
  4075a4:	afa30040 	sw	v1,64(sp)
  4075a8:	8e230004 	lw	v1,4(s1)
  4075ac:	3405ffff 	li	a1,0xffff
  4075b0:	afa30044 	sw	v1,68(sp)
  4075b4:	2403000c 	li	v1,12
  4075b8:	afa30010 	sw	v1,16(sp)
  4075bc:	240603e7 	li	a2,999
  4075c0:	0320f809 	jalr	t9
  4075c4:	27a7003c 	addiu	a3,sp,60
  4075c8:	08101d7a 	j	4075e8 <busybox_main+0x1aa8>
  4075cc:	8fbf018c 	lw	ra,396(sp)
  4075d0:	3c040045 	lui	a0,0x45
  4075d4:	8f998758 	lw	t9,-30888(gp)
  4075d8:	2484be00 	addiu	a0,a0,-16896
  4075dc:	0320f809 	jalr	t9
  4075e0:	00000000 	nop
  4075e4:	8fbf018c 	lw	ra,396(sp)
  4075e8:	00001021 	move	v0,zero
  4075ec:	8fb50188 	lw	s5,392(sp)
  4075f0:	8fb40184 	lw	s4,388(sp)
  4075f4:	8fb30180 	lw	s3,384(sp)
  4075f8:	8fb2017c 	lw	s2,380(sp)
  4075fc:	8fb10178 	lw	s1,376(sp)
  407600:	8fb00174 	lw	s0,372(sp)
  407604:	03e00008 	jr	ra
  407608:	27bd0190 	addiu	sp,sp,400
  40760c:	0411f717 	bal	40526c <bb_show_usage>
  407610:	00000000 	nop
	...
  407620:	3c1c0047 	lui	gp,0x47
  407624:	279cd250 	addiu	gp,gp,-11696
  407628:	27bdff50 	addiu	sp,sp,-176
  40762c:	8f998080 	lw	t9,-32640(gp)
  407630:	3c060045 	lui	a2,0x45
  407634:	afbf00ac 	sw	ra,172(sp)
  407638:	afb40098 	sw	s4,152(sp)
  40763c:	afb1008c 	sw	s1,140(sp)
  407640:	afb00088 	sw	s0,136(sp)
  407644:	afbc0020 	sw	gp,32(sp)
  407648:	24c6be40 	addiu	a2,a2,-16832
  40764c:	afbe00a8 	sw	s8,168(sp)
  407650:	afb700a4 	sw	s7,164(sp)
  407654:	afb600a0 	sw	s6,160(sp)
  407658:	afb5009c 	sw	s5,156(sp)
  40765c:	afb30094 	sw	s3,148(sp)
  407660:	afb20090 	sw	s2,144(sp)
  407664:	00808021 	move	s0,a0
  407668:	0320f809 	jalr	t9
  40766c:	00a08821 	move	s1,a1
  407670:	8fbc0020 	lw	gp,32(sp)
  407674:	3c040045 	lui	a0,0x45
  407678:	8f9980dc 	lw	t9,-32548(gp)
  40767c:	3c050045 	lui	a1,0x45
  407680:	3c060045 	lui	a2,0x45
  407684:	2484be44 	addiu	a0,a0,-16828
  407688:	24a53c34 	addiu	a1,a1,15412
  40768c:	0320f809 	jalr	t9
  407690:	24c6bed0 	addiu	a2,a2,-16688
  407694:	8fbc0020 	lw	gp,32(sp)
  407698:	8f82862c 	lw	v0,-31188(gp)
  40769c:	8c540000 	lw	s4,0(v0)
  4076a0:	0290102a 	slt	v0,s4,s0
  4076a4:	14400009 	bnez	v0,4076cc <busybox_main+0x1b8c>
  4076a8:	00008021 	move	s0,zero
  4076ac:	8f998578 	lw	t9,-31368(gp)
  4076b0:	8f8480e0 	lw	a0,-32544(gp)
  4076b4:	3c050045 	lui	a1,0x45
  4076b8:	0320f809 	jalr	t9
  4076bc:	24a5cc78 	addiu	a1,a1,-13192
  4076c0:	00408021 	move	s0,v0
  4076c4:	1040000a 	beqz	v0,4076f0 <busybox_main+0x1bb0>
  4076c8:	8fbc0020 	lw	gp,32(sp)
  4076cc:	0014a080 	sll	s4,s4,0x2
  4076d0:	3c160045 	lui	s6,0x45
  4076d4:	3c170045 	lui	s7,0x45
  4076d8:	0234a021 	addu	s4,s1,s4
  4076dc:	00009021 	move	s2,zero
  4076e0:	26d6be78 	addiu	s6,s6,-16776
  4076e4:	26f7be94 	addiu	s7,s7,-16748
  4076e8:	08101dc0 	j	407700 <busybox_main+0x1bc0>
  4076ec:	3c1e0045 	lui	s8,0x45
  4076f0:	8f8480e0 	lw	a0,-32544(gp)
  4076f4:	08101e5b 	j	40796c <busybox_main+0x1e2c>
  4076f8:	8f9980d4 	lw	t9,-32556(gp)
  4076fc:	24120001 	li	s2,1
  407700:	5200000c 	beqzl	s0,407734 <busybox_main+0x1bf4>
  407704:	8e910000 	lw	s1,0(s4)
  407708:	8f998484 	lw	t9,-31612(gp)
  40770c:	0320f809 	jalr	t9
  407710:	02002021 	move	a0,s0
  407714:	14400016 	bnez	v0,407770 <busybox_main+0x1c30>
  407718:	8fbc0020 	lw	gp,32(sp)
  40771c:	8f998568 	lw	t9,-31384(gp)
  407720:	0320f809 	jalr	t9
  407724:	02002021 	move	a0,s0
  407728:	08101e59 	j	407964 <busybox_main+0x1e24>
  40772c:	8fbc0020 	lw	gp,32(sp)
  407730:	8e910000 	lw	s1,0(s4)
  407734:	1220008b 	beqz	s1,407964 <busybox_main+0x1e24>
  407738:	8f9980e4 	lw	t9,-32540(gp)
  40773c:	8f8580e0 	lw	a1,-32544(gp)
  407740:	0320f809 	jalr	t9
  407744:	02202021 	move	a0,s1
  407748:	26940004 	addiu	s4,s4,4
  40774c:	14400008 	bnez	v0,407770 <busybox_main+0x1c30>
  407750:	8fbc0020 	lw	gp,32(sp)
  407754:	8f9980e8 	lw	t9,-32536(gp)
  407758:	02c02021 	move	a0,s6
  40775c:	0320f809 	jalr	t9
  407760:	02202821 	move	a1,s1
  407764:	24120001 	li	s2,1
  407768:	08101dcc 	j	407730 <busybox_main+0x1bf0>
  40776c:	8fbc0020 	lw	gp,32(sp)
  407770:	8c530004 	lw	s3,4(v0)
  407774:	8f9987c0 	lw	t9,-30784(gp)
  407778:	02602021 	move	a0,s3
  40777c:	27a50028 	addiu	a1,sp,40
  407780:	0320f809 	jalr	t9
  407784:	8c510000 	lw	s1,0(v0)
  407788:	10400008 	beqz	v0,4077ac <busybox_main+0x1c6c>
  40778c:	8fbc0020 	lw	gp,32(sp)
  407790:	8f998090 	lw	t9,-32624(gp)
  407794:	3c020045 	lui	v0,0x45
  407798:	2444f150 	addiu	a0,v0,-3760
  40779c:	0320f809 	jalr	t9
  4077a0:	02602821 	move	a1,s3
  4077a4:	08101dbf 	j	4076fc <busybox_main+0x1bbc>
  4077a8:	8fbc0020 	lw	gp,32(sp)
  4077ac:	8fa2003c 	lw	v0,60(sp)
  4077b0:	8fa30038 	lw	v1,56(sp)
  4077b4:	00621825 	or	v1,v1,v0
  4077b8:	14600004 	bnez	v1,4077cc <busybox_main+0x1c8c>
  4077bc:	8fa30044 	lw	v1,68(sp)
  4077c0:	1600ffd2 	bnez	s0,40770c <busybox_main+0x1bcc>
  4077c4:	8f998484 	lw	t9,-31612(gp)
  4077c8:	8fa30044 	lw	v1,68(sp)
  4077cc:	8fa7005c 	lw	a3,92(sp)
  4077d0:	00431023 	subu	v0,v0,v1
  4077d4:	8fa40058 	lw	a0,88(sp)
  4077d8:	00473821 	addu	a3,v0,a3
  4077dc:	000237c3 	sra	a2,v0,0x1f
  4077e0:	00e2182b 	sltu	v1,a3,v0
  4077e4:	00c43021 	addu	a2,a2,a0
  4077e8:	00663021 	addu	a2,v1,a2
  4077ec:	00c71825 	or	v1,a2,a3
  4077f0:	10600011 	beqz	v1,407838 <busybox_main+0x1cf8>
  4077f4:	0000a821 	move	s5,zero
  4077f8:	00061fc0 	sll	v1,a2,0x1f
  4077fc:	00072042 	srl	a0,a3,0x1
  407800:	00642025 	or	a0,v1,a0
  407804:	24030064 	li	v1,100
  407808:	00430018 	mult	v0,v1
  40780c:	00064042 	srl	t0,a2,0x1
  407810:	00001812 	mflo	v1
  407814:	00001010 	mfhi	v0
  407818:	00832821 	addu	a1,a0,v1
  40781c:	8f99805c 	lw	t9,-32676(gp)
  407820:	00a4202b 	sltu	a0,a1,a0
  407824:	01021021 	addu	v0,t0,v0
  407828:	0320f809 	jalr	t9
  40782c:	00822021 	addu	a0,a0,v0
  407830:	8fbc0020 	lw	gp,32(sp)
  407834:	0060a821 	move	s5,v1
  407838:	8f9984f0 	lw	t9,-31504(gp)
  40783c:	02202021 	move	a0,s1
  407840:	0320f809 	jalr	t9
  407844:	02e02821 	move	a1,s7
  407848:	1040ffad 	beqz	v0,407700 <busybox_main+0x1bc0>
  40784c:	8fbc0020 	lw	gp,32(sp)
  407850:	8f9984f0 	lw	t9,-31504(gp)
  407854:	02202021 	move	a0,s1
  407858:	0320f809 	jalr	t9
  40785c:	27c5be9c 	addiu	a1,s8,-16740
  407860:	14400007 	bnez	v0,407880 <busybox_main+0x1d40>
  407864:	8fbc0020 	lw	gp,32(sp)
  407868:	8f9980ec 	lw	t9,-32532(gp)
  40786c:	0320f809 	jalr	t9
  407870:	00000000 	nop
  407874:	00408821 	move	s1,v0
  407878:	1040ffa0 	beqz	v0,4076fc <busybox_main+0x1bbc>
  40787c:	8fbc0020 	lw	gp,32(sp)
  407880:	8fa2002c 	lw	v0,44(sp)
  407884:	8fa8003c 	lw	t0,60(sp)
  407888:	8fa40044 	lw	a0,68(sp)
  40788c:	01020018 	mult	t0,v0
  407890:	01042023 	subu	a0,t0,a0
  407894:	00004812 	mflo	t1
  407898:	00004010 	mfhi	t0
  40789c:	25260200 	addiu	a2,t1,512
  4078a0:	00c9182b 	sltu	v1,a2,t1
  4078a4:	00684021 	addu	t0,v1,t0
  4078a8:	00081fc3 	sra	v1,t0,0x1f
  4078ac:	306303ff 	andi	v1,v1,0x3ff
  4078b0:	00820018 	mult	a0,v0
  4078b4:	00663021 	addu	a2,v1,a2
  4078b8:	00c3182b 	sltu	v1,a2,v1
  4078bc:	00002812 	mflo	a1
  4078c0:	00684021 	addu	t0,v1,t0
  4078c4:	8fa3005c 	lw	v1,92(sp)
  4078c8:	24a70200 	addiu	a3,a1,512
  4078cc:	00002010 	mfhi	a0
  4078d0:	00620018 	mult	v1,v0
  4078d4:	00e5482b 	sltu	t1,a3,a1
  4078d8:	01242021 	addu	a0,t1,a0
  4078dc:	00001812 	mflo	v1
  4078e0:	00044fc3 	sra	t1,a0,0x1f
  4078e4:	24650200 	addiu	a1,v1,512
  4078e8:	312903ff 	andi	t1,t1,0x3ff
  4078ec:	00001010 	mfhi	v0
  4078f0:	00a3182b 	sltu	v1,a1,v1
  4078f4:	01273821 	addu	a3,t1,a3
  4078f8:	00621021 	addu	v0,v1,v0
  4078fc:	00e9482b 	sltu	t1,a3,t1
  407900:	01244821 	addu	t1,t1,a0
  407904:	000227c3 	sra	a0,v0,0x1f
  407908:	308403ff 	andi	a0,a0,0x3ff
  40790c:	00851821 	addu	v1,a0,a1
  407910:	0064202b 	sltu	a0,v1,a0
  407914:	00821021 	addu	v0,a0,v0
  407918:	00021580 	sll	v0,v0,0x16
  40791c:	00031a82 	srl	v1,v1,0xa
  407920:	8f9980dc 	lw	t9,-32548(gp)
  407924:	00084580 	sll	t0,t0,0x16
  407928:	00094d80 	sll	t1,t1,0x16
  40792c:	00431825 	or	v1,v0,v1
  407930:	00063282 	srl	a2,a2,0xa
  407934:	00073a82 	srl	a3,a3,0xa
  407938:	3c040045 	lui	a0,0x45
  40793c:	afa30010 	sw	v1,16(sp)
  407940:	afb50014 	sw	s5,20(sp)
  407944:	afb30018 	sw	s3,24(sp)
  407948:	2484bea8 	addiu	a0,a0,-16728
  40794c:	02202821 	move	a1,s1
  407950:	01063025 	or	a2,t0,a2
  407954:	0320f809 	jalr	t9
  407958:	01273825 	or	a3,t1,a3
  40795c:	08101dc0 	j	407700 <busybox_main+0x1bc0>
  407960:	8fbc0020 	lw	gp,32(sp)
  407964:	8f9980ac 	lw	t9,-32596(gp)
  407968:	02402021 	move	a0,s2
  40796c:	0320f809 	jalr	t9
  407970:	00000000 	nop
	...
  407980:	27bdffc0 	addiu	sp,sp,-64
  407984:	3c1c0047 	lui	gp,0x47
  407988:	afb70034 	sw	s7,52(sp)
  40798c:	279cd250 	addiu	gp,gp,-11696
  407990:	3c170045 	lui	s7,0x45
  407994:	afbe0038 	sw	s8,56(sp)
  407998:	afb60030 	sw	s6,48(sp)
  40799c:	afb5002c 	sw	s5,44(sp)
  4079a0:	afb40028 	sw	s4,40(sp)
  4079a4:	afb30024 	sw	s3,36(sp)
  4079a8:	afb00018 	sw	s0,24(sp)
  4079ac:	afbf003c 	sw	ra,60(sp)
  4079b0:	afb20020 	sw	s2,32(sp)
  4079b4:	afb1001c 	sw	s1,28(sp)
  4079b8:	afbc0010 	sw	gp,16(sp)
  4079bc:	00a08021 	move	s0,a1
  4079c0:	0000a021 	move	s4,zero
  4079c4:	24130001 	li	s3,1
  4079c8:	241e002d 	li	s8,45
  4079cc:	26f7bee0 	addiu	s7,s7,-16672
  4079d0:	2416006e 	li	s6,110
  4079d4:	08101e8e 	j	407a38 <busybox_main+0x1ef8>
  4079d8:	2415005c 	li	s5,92
  4079dc:	1040005e 	beqz	v0,407b58 <busybox_main+0x2018>
  4079e0:	02209021 	move	s2,s1
  4079e4:	8f998690 	lw	t9,-31088(gp)
  4079e8:	82450001 	lb	a1,1(s2)
  4079ec:	0320f809 	jalr	t9
  4079f0:	02e02021 	move	a0,s7
  4079f4:	10400058 	beqz	v0,407b58 <busybox_main+0x2018>
  4079f8:	8fbc0010 	lw	gp,16(sp)
  4079fc:	26520001 	addiu	s2,s2,1
  407a00:	82420001 	lb	v0,1(s2)
  407a04:	1440fff8 	bnez	v0,4079e8 <busybox_main+0x1ea8>
  407a08:	8f998690 	lw	t9,-31088(gp)
  407a0c:	82220001 	lb	v0,1(s1)
  407a10:	50560005 	beql	v0,s6,407a28 <busybox_main+0x1ee8>
  407a14:	00009821 	move	s3,zero
  407a18:	38540065 	xori	s4,v0,0x65
  407a1c:	02a01021 	move	v0,s5
  407a20:	0014100b 	movn	v0,zero,s4
  407a24:	0040a021 	move	s4,v0
  407a28:	26310001 	addiu	s1,s1,1
  407a2c:	82220001 	lb	v0,1(s1)
  407a30:	1440fff7 	bnez	v0,407a10 <busybox_main+0x1ed0>
  407a34:	00000000 	nop
  407a38:	26100004 	addiu	s0,s0,4
  407a3c:	8e110000 	lw	s1,0(s0)
  407a40:	52200046 	beqzl	s1,407b5c <busybox_main+0x201c>
  407a44:	8f918478 	lw	s1,-31624(gp)
  407a48:	82220000 	lb	v0,0(s1)
  407a4c:	505effe3 	beql	v0,s8,4079dc <busybox_main+0x1e9c>
  407a50:	82220001 	lb	v0,1(s1)
  407a54:	08101ed7 	j	407b5c <busybox_main+0x201c>
  407a58:	8f918478 	lw	s1,-31624(gp)
  407a5c:	54940012 	bnel	a0,s4,407aa8 <busybox_main+0x1f68>
  407a60:	8e250000 	lw	a1,0(s1)
  407a64:	80430001 	lb	v1,1(v0)
  407a68:	1076005a 	beq	v1,s6,407bd4 <busybox_main+0x2094>
  407a6c:	8f9980ac 	lw	t9,-32596(gp)
  407a70:	14750008 	bne	v1,s5,407a94 <busybox_main+0x1f54>
  407a74:	8f9980f0 	lw	t9,-32528(gp)
  407a78:	80430002 	lb	v1,2(v0)
  407a7c:	2463ffd0 	addiu	v1,v1,-48
  407a80:	2c630008 	sltiu	v1,v1,8
  407a84:	10600003 	beqz	v1,407a94 <busybox_main+0x1f54>
  407a88:	24420002 	addiu	v0,v0,2
  407a8c:	ae020000 	sw	v0,0(s0)
  407a90:	8f9980f0 	lw	t9,-32528(gp)
  407a94:	0320f809 	jalr	t9
  407a98:	02002021 	move	a0,s0
  407a9c:	8fbc0010 	lw	gp,16(sp)
  407aa0:	00402021 	move	a0,v0
  407aa4:	8e250000 	lw	a1,0(s1)
  407aa8:	8ca20048 	lw	v0,72(a1)
  407aac:	1040000a 	beqz	v0,407ad8 <busybox_main+0x1f98>
  407ab0:	8f998494 	lw	t9,-31596(gp)
  407ab4:	8ca20010 	lw	v0,16(a1)
  407ab8:	8ca3001c 	lw	v1,28(a1)
  407abc:	0043182b 	sltu	v1,v0,v1
  407ac0:	10600005 	beqz	v1,407ad8 <busybox_main+0x1f98>
  407ac4:	8f9983c0 	lw	t9,-31808(gp)
  407ac8:	a0440000 	sb	a0,0(v0)
  407acc:	24420001 	addiu	v0,v0,1
  407ad0:	08101eb9 	j	407ae4 <busybox_main+0x1fa4>
  407ad4:	aca20010 	sw	v0,16(a1)
  407ad8:	0320f809 	jalr	t9
  407adc:	00000000 	nop
  407ae0:	8fbc0010 	lw	gp,16(sp)
  407ae4:	8e020000 	lw	v0,0(s0)
  407ae8:	80440000 	lb	a0,0(v0)
  407aec:	24430001 	addiu	v1,v0,1
  407af0:	1480ffda 	bnez	a0,407a5c <busybox_main+0x1f1c>
  407af4:	ae030000 	sw	v1,0(s0)
  407af8:	26100004 	addiu	s0,s0,4
  407afc:	8e020000 	lw	v0,0(s0)
  407b00:	1040001a 	beqz	v0,407b6c <busybox_main+0x202c>
  407b04:	00000000 	nop
  407b08:	8e250000 	lw	a1,0(s1)
  407b0c:	8ca20048 	lw	v0,72(a1)
  407b10:	1040000c 	beqz	v0,407b44 <busybox_main+0x2004>
  407b14:	8f998494 	lw	t9,-31596(gp)
  407b18:	8ca20010 	lw	v0,16(a1)
  407b1c:	8ca3001c 	lw	v1,28(a1)
  407b20:	0043182b 	sltu	v1,v0,v1
  407b24:	50600005 	beqzl	v1,407b3c <busybox_main+0x1ffc>
  407b28:	24040020 	li	a0,32
  407b2c:	a0520000 	sb	s2,0(v0)
  407b30:	24420001 	addiu	v0,v0,1
  407b34:	08101eda 	j	407b68 <busybox_main+0x2028>
  407b38:	aca20010 	sw	v0,16(a1)
  407b3c:	08101ed2 	j	407b48 <busybox_main+0x2008>
  407b40:	8f9983c0 	lw	t9,-31808(gp)
  407b44:	24040020 	li	a0,32
  407b48:	0320f809 	jalr	t9
  407b4c:	00000000 	nop
  407b50:	08101eda 	j	407b68 <busybox_main+0x2028>
  407b54:	8fbc0010 	lw	gp,16(sp)
  407b58:	8f918478 	lw	s1,-31624(gp)
  407b5c:	24160063 	li	s6,99
  407b60:	24150030 	li	s5,48
  407b64:	24120020 	li	s2,32
  407b68:	8e020000 	lw	v0,0(s0)
  407b6c:	5440ffde 	bnezl	v0,407ae8 <busybox_main+0x1fa8>
  407b70:	8e020000 	lw	v0,0(s0)
  407b74:	12600017 	beqz	s3,407bd4 <busybox_main+0x2094>
  407b78:	8f9980ac 	lw	t9,-32596(gp)
  407b7c:	8f828478 	lw	v0,-31624(gp)
  407b80:	8c450000 	lw	a1,0(v0)
  407b84:	8ca20048 	lw	v0,72(a1)
  407b88:	1040000d 	beqz	v0,407bc0 <busybox_main+0x2080>
  407b8c:	8f998494 	lw	t9,-31596(gp)
  407b90:	8ca20010 	lw	v0,16(a1)
  407b94:	8ca3001c 	lw	v1,28(a1)
  407b98:	0043182b 	sltu	v1,v0,v1
  407b9c:	10600005 	beqz	v1,407bb4 <busybox_main+0x2074>
  407ba0:	2403000a 	li	v1,10
  407ba4:	a0430000 	sb	v1,0(v0)
  407ba8:	24420001 	addiu	v0,v0,1
  407bac:	08101ef4 	j	407bd0 <busybox_main+0x2090>
  407bb0:	aca20010 	sw	v0,16(a1)
  407bb4:	2404000a 	li	a0,10
  407bb8:	08101ef1 	j	407bc4 <busybox_main+0x2084>
  407bbc:	8f9983c0 	lw	t9,-31808(gp)
  407bc0:	2404000a 	li	a0,10
  407bc4:	0320f809 	jalr	t9
  407bc8:	00000000 	nop
  407bcc:	8fbc0010 	lw	gp,16(sp)
  407bd0:	8f9980ac 	lw	t9,-32596(gp)
  407bd4:	0320f809 	jalr	t9
  407bd8:	00002021 	move	a0,zero
  407bdc:	00000000 	nop
  407be0:	3c1c0047 	lui	gp,0x47
  407be4:	279cd250 	addiu	gp,gp,-11696
  407be8:	27bdff20 	addiu	sp,sp,-224
  407bec:	8f998080 	lw	t9,-32640(gp)
  407bf0:	3c060045 	lui	a2,0x45
  407bf4:	afb400c8 	sw	s4,200(sp)
  407bf8:	afb200c0 	sw	s2,192(sp)
  407bfc:	afb000b8 	sw	s0,184(sp)
  407c00:	afbc0010 	sw	gp,16(sp)
  407c04:	afbf00dc 	sw	ra,220(sp)
  407c08:	afbe00d8 	sw	s8,216(sp)
  407c0c:	afb700d4 	sw	s7,212(sp)
  407c10:	afb600d0 	sw	s6,208(sp)
  407c14:	afb500cc 	sw	s5,204(sp)
  407c18:	afb300c4 	sw	s3,196(sp)
  407c1c:	afb100bc 	sw	s1,188(sp)
  407c20:	24c6bee4 	addiu	a2,a2,-16668
  407c24:	00809021 	move	s2,a0
  407c28:	0320f809 	jalr	t9
  407c2c:	00a08021 	move	s0,a1
  407c30:	8fbc0010 	lw	gp,16(sp)
  407c34:	0040a021 	move	s4,v0
  407c38:	8f82862c 	lw	v0,-31188(gp)
  407c3c:	8c420000 	lw	v0,0(v0)
  407c40:	16420004 	bne	s2,v0,407c54 <busybox_main+0x2114>
  407c44:	2643ffff 	addiu	v1,s2,-1
  407c48:	8f998094 	lw	t9,-32620(gp)
  407c4c:	0411f587 	bal	40526c <bb_show_usage>
  407c50:	00000000 	nop
  407c54:	00031880 	sll	v1,v1,0x2
  407c58:	02031821 	addu	v1,s0,v1
  407c5c:	8c710000 	lw	s1,0(v1)
  407c60:	00021880 	sll	v1,v0,0x2
  407c64:	24420001 	addiu	v0,v0,1
  407c68:	1642000d 	bne	s2,v0,407ca0 <busybox_main+0x2160>
  407c6c:	02038021 	addu	s0,s0,v1
  407c70:	8f998074 	lw	t9,-32652(gp)
  407c74:	ae11fffc 	sw	s1,-4(s0)
  407c78:	0320f809 	jalr	t9
  407c7c:	02202021 	move	a0,s1
  407c80:	8fbc0010 	lw	gp,16(sp)
  407c84:	00402021 	move	a0,v0
  407c88:	8f9980b8 	lw	t9,-32584(gp)
  407c8c:	0320f809 	jalr	t9
  407c90:	2612fffc 	addiu	s2,s0,-4
  407c94:	8fbc0010 	lw	gp,16(sp)
  407c98:	00408821 	move	s1,v0
  407c9c:	02408021 	move	s0,s2
  407ca0:	8f938550 	lw	s3,-31408(gp)
  407ca4:	8f82845c 	lw	v0,-31652(gp)
  407ca8:	0014b027 	nor	s6,zero,s4
  407cac:	32950001 	andi	s5,s4,0x1
  407cb0:	00009021 	move	s2,zero
  407cb4:	32d60004 	andi	s6,s6,0x4
  407cb8:	0055980a 	movz	s3,v0,s5
  407cbc:	8f9980f4 	lw	t9,-32524(gp)
  407cc0:	02202021 	move	a0,s1
  407cc4:	02c02821 	move	a1,s6
  407cc8:	0320f809 	jalr	t9
  407ccc:	00003021 	move	a2,zero
  407cd0:	10400016 	beqz	v0,407d2c <busybox_main+0x21ec>
  407cd4:	8fbc0010 	lw	gp,16(sp)
  407cd8:	8f998074 	lw	t9,-32652(gp)
  407cdc:	0320f809 	jalr	t9
  407ce0:	8e040000 	lw	a0,0(s0)
  407ce4:	8fbc0010 	lw	gp,16(sp)
  407ce8:	00402021 	move	a0,v0
  407cec:	8f9980b8 	lw	t9,-32584(gp)
  407cf0:	0320f809 	jalr	t9
  407cf4:	0040f021 	move	s8,v0
  407cf8:	8fbc0010 	lw	gp,16(sp)
  407cfc:	02202021 	move	a0,s1
  407d00:	8f9980c0 	lw	t9,-32576(gp)
  407d04:	0320f809 	jalr	t9
  407d08:	00402821 	move	a1,v0
  407d0c:	8fbc0010 	lw	gp,16(sp)
  407d10:	0040b821 	move	s7,v0
  407d14:	8f9983c8 	lw	t9,-31800(gp)
  407d18:	0320f809 	jalr	t9
  407d1c:	03c02021 	move	a0,s8
  407d20:	02e0f021 	move	s8,s7
  407d24:	08101f4d 	j	407d34 <busybox_main+0x21f4>
  407d28:	8fbc0010 	lw	gp,16(sp)
  407d2c:	0220b821 	move	s7,s1
  407d30:	0000f021 	move	s8,zero
  407d34:	16a00012 	bnez	s5,407d80 <busybox_main+0x2240>
  407d38:	32820002 	andi	v0,s4,0x2
  407d3c:	8f9987f0 	lw	t9,-30736(gp)
  407d40:	8e040000 	lw	a0,0(s0)
  407d44:	0320f809 	jalr	t9
  407d48:	27a50018 	addiu	a1,sp,24
  407d4c:	1040000b 	beqz	v0,407d7c <busybox_main+0x223c>
  407d50:	8fbc0010 	lw	gp,16(sp)
  407d54:	8f998090 	lw	t9,-32624(gp)
  407d58:	8e040000 	lw	a0,0(s0)
  407d5c:	0320f809 	jalr	t9
  407d60:	24120001 	li	s2,1
  407d64:	8fbc0010 	lw	gp,16(sp)
  407d68:	8f9983c8 	lw	t9,-31800(gp)
  407d6c:	0320f809 	jalr	t9
  407d70:	03c02021 	move	a0,s8
  407d74:	08101f74 	j	407dd0 <busybox_main+0x2290>
  407d78:	8fbc0010 	lw	gp,16(sp)
  407d7c:	32820002 	andi	v0,s4,0x2
  407d80:	50400005 	beqzl	v0,407d98 <busybox_main+0x2258>
  407d84:	8e040000 	lw	a0,0(s0)
  407d88:	8f9985d0 	lw	t9,-31280(gp)
  407d8c:	0320f809 	jalr	t9
  407d90:	02e02021 	move	a0,s7
  407d94:	8e040000 	lw	a0,0(s0)
  407d98:	0260c821 	move	t9,s3
  407d9c:	0320f809 	jalr	t9
  407da0:	02e02821 	move	a1,s7
  407da4:	10400006 	beqz	v0,407dc0 <busybox_main+0x2280>
  407da8:	8fbc0010 	lw	gp,16(sp)
  407dac:	8f998090 	lw	t9,-32624(gp)
  407db0:	0320f809 	jalr	t9
  407db4:	02e02021 	move	a0,s7
  407db8:	8fbc0010 	lw	gp,16(sp)
  407dbc:	24120001 	li	s2,1
  407dc0:	8f9983c8 	lw	t9,-31800(gp)
  407dc4:	0320f809 	jalr	t9
  407dc8:	03c02021 	move	a0,s8
  407dcc:	8fbc0010 	lw	gp,16(sp)
  407dd0:	26100004 	addiu	s0,s0,4
  407dd4:	8e020004 	lw	v0,4(s0)
  407dd8:	1440ffb9 	bnez	v0,407cc0 <busybox_main+0x2180>
  407ddc:	8f9980f4 	lw	t9,-32524(gp)
  407de0:	8fbf00dc 	lw	ra,220(sp)
  407de4:	02401021 	move	v0,s2
  407de8:	8fbe00d8 	lw	s8,216(sp)
  407dec:	8fb700d4 	lw	s7,212(sp)
  407df0:	8fb600d0 	lw	s6,208(sp)
  407df4:	8fb500cc 	lw	s5,204(sp)
  407df8:	8fb400c8 	lw	s4,200(sp)
  407dfc:	8fb300c4 	lw	s3,196(sp)
  407e00:	8fb200c0 	lw	s2,192(sp)
  407e04:	8fb100bc 	lw	s1,188(sp)
  407e08:	8fb000b8 	lw	s0,184(sp)
  407e0c:	03e00008 	jr	ra
  407e10:	27bd00e0 	addiu	sp,sp,224
	...
  407e20:	1080001c 	beqz	a0,407e94 <busybox_main+0x2354>
  407e24:	00001021 	move	v0,zero
  407e28:	18a0001a 	blez	a1,407e94 <busybox_main+0x2354>
  407e2c:	00001821 	move	v1,zero
  407e30:	240a4000 	li	t2,16384
  407e34:	2408002e 	li	t0,46
  407e38:	8c870000 	lw	a3,0(a0)
  407e3c:	8ce90020 	lw	t1,32(a3)
  407e40:	3129f000 	andi	t1,t1,0xf000
  407e44:	552a0011 	bnel	t1,t2,407e8c <busybox_main+0x234c>
  407e48:	24630001 	addiu	v1,v1,1
  407e4c:	54c0000e 	bnezl	a2,407e88 <busybox_main+0x2348>
  407e50:	24420001 	addiu	v0,v0,1
  407e54:	8ce70000 	lw	a3,0(a3)
  407e58:	80e90000 	lb	t1,0(a3)
  407e5c:	5528000a 	bnel	t1,t0,407e88 <busybox_main+0x2348>
  407e60:	24420001 	addiu	v0,v0,1
  407e64:	80e90001 	lb	t1,1(a3)
  407e68:	51200008 	beqzl	t1,407e8c <busybox_main+0x234c>
  407e6c:	24630001 	addiu	v1,v1,1
  407e70:	55280005 	bnel	t1,t0,407e88 <busybox_main+0x2348>
  407e74:	24420001 	addiu	v0,v0,1
  407e78:	80e70002 	lb	a3,2(a3)
  407e7c:	50e00003 	beqzl	a3,407e8c <busybox_main+0x234c>
  407e80:	24630001 	addiu	v1,v1,1
  407e84:	24420001 	addiu	v0,v0,1
  407e88:	24630001 	addiu	v1,v1,1
  407e8c:	1465ffea 	bne	v1,a1,407e38 <busybox_main+0x22f8>
  407e90:	24840004 	addiu	a0,a0,4
  407e94:	03e00008 	jr	ra
  407e98:	00000000 	nop
  407e9c:	3c1c0047 	lui	gp,0x47
  407ea0:	27bdffd8 	addiu	sp,sp,-40
  407ea4:	279cd250 	addiu	gp,gp,-11696
  407ea8:	afb20020 	sw	s2,32(sp)
  407eac:	afb1001c 	sw	s1,28(sp)
  407eb0:	afb00018 	sw	s0,24(sp)
  407eb4:	afbf0024 	sw	ra,36(sp)
  407eb8:	afbc0010 	sw	gp,16(sp)
  407ebc:	00809021 	move	s2,a0
  407ec0:	00a08821 	move	s1,a1
  407ec4:	00c08021 	move	s0,a2
  407ec8:	1080003b 	beqz	a0,407fb8 <busybox_main+0x2478>
  407ecc:	00001021 	move	v0,zero
  407ed0:	18a0003a 	blez	a1,407fbc <busybox_main+0x247c>
  407ed4:	8fbf0024 	lw	ra,36(sp)
  407ed8:	24020002 	li	v0,2
  407edc:	14c20006 	bne	a2,v0,407ef8 <busybox_main+0x23b8>
  407ee0:	00000000 	nop
  407ee4:	0c101f88 	jal	407e20 <busybox_main+0x22e0>
  407ee8:	00003021 	move	a2,zero
  407eec:	00402021 	move	a0,v0
  407ef0:	08101fc3 	j	407f0c <busybox_main+0x23cc>
  407ef4:	8fbc0010 	lw	gp,16(sp)
  407ef8:	0c101f88 	jal	407e20 <busybox_main+0x22e0>
  407efc:	24060001 	li	a2,1
  407f00:	02222023 	subu	a0,s1,v0
  407f04:	8fbc0010 	lw	gp,16(sp)
  407f08:	0050200b 	movn	a0,v0,s0
  407f0c:	18800004 	blez	a0,407f20 <busybox_main+0x23e0>
  407f10:	00001021 	move	v0,zero
  407f14:	8f9980c4 	lw	t9,-32572(gp)
  407f18:	0320f809 	jalr	t9
  407f1c:	24050004 	li	a1,4
  407f20:	32080003 	andi	t0,s0,0x3
  407f24:	00001821 	move	v1,zero
  407f28:	00002821 	move	a1,zero
  407f2c:	240a4000 	li	t2,16384
  407f30:	32100001 	andi	s0,s0,0x1
  407f34:	2407002e 	li	a3,46
  407f38:	8e440000 	lw	a0,0(s2)
  407f3c:	8c860020 	lw	a2,32(a0)
  407f40:	30c6f000 	andi	a2,a2,0xf000
  407f44:	14ca0013 	bne	a2,t2,407f94 <busybox_main+0x2454>
  407f48:	00000000 	nop
  407f4c:	51000018 	beqzl	t0,407fb0 <busybox_main+0x2470>
  407f50:	24a50001 	addiu	a1,a1,1
  407f54:	16000012 	bnez	s0,407fa0 <busybox_main+0x2460>
  407f58:	00033080 	sll	a2,v1,0x2
  407f5c:	8c860000 	lw	a2,0(a0)
  407f60:	80c90000 	lb	t1,0(a2)
  407f64:	5527000e 	bnel	t1,a3,407fa0 <busybox_main+0x2460>
  407f68:	00033080 	sll	a2,v1,0x2
  407f6c:	80c90001 	lb	t1,1(a2)
  407f70:	5120000f 	beqzl	t1,407fb0 <busybox_main+0x2470>
  407f74:	24a50001 	addiu	a1,a1,1
  407f78:	55270009 	bnel	t1,a3,407fa0 <busybox_main+0x2460>
  407f7c:	00033080 	sll	a2,v1,0x2
  407f80:	80c60002 	lb	a2,2(a2)
  407f84:	50c0000a 	beqzl	a2,407fb0 <busybox_main+0x2470>
  407f88:	24a50001 	addiu	a1,a1,1
  407f8c:	08101fe8 	j	407fa0 <busybox_main+0x2460>
  407f90:	00033080 	sll	a2,v1,0x2
  407f94:	55000006 	bnezl	t0,407fb0 <busybox_main+0x2470>
  407f98:	24a50001 	addiu	a1,a1,1
  407f9c:	00033080 	sll	a2,v1,0x2
  407fa0:	00463021 	addu	a2,v0,a2
  407fa4:	acc40000 	sw	a0,0(a2)
  407fa8:	24630001 	addiu	v1,v1,1
  407fac:	24a50001 	addiu	a1,a1,1
  407fb0:	14b1ffe1 	bne	a1,s1,407f38 <busybox_main+0x23f8>
  407fb4:	26520004 	addiu	s2,s2,4
  407fb8:	8fbf0024 	lw	ra,36(sp)
  407fbc:	8fb20020 	lw	s2,32(sp)
  407fc0:	8fb1001c 	lw	s1,28(sp)
  407fc4:	8fb00018 	lw	s0,24(sp)
  407fc8:	03e00008 	jr	ra
  407fcc:	27bd0028 	addiu	sp,sp,40
  407fd0:	3c1c0047 	lui	gp,0x47
  407fd4:	27bdff90 	addiu	sp,sp,-112
  407fd8:	279cd250 	addiu	gp,gp,-11696
  407fdc:	afb5005c 	sw	s5,92(sp)
  407fe0:	afbf006c 	sw	ra,108(sp)
  407fe4:	afbe0068 	sw	s8,104(sp)
  407fe8:	afb70064 	sw	s7,100(sp)
  407fec:	afb60060 	sw	s6,96(sp)
  407ff0:	afb40058 	sw	s4,88(sp)
  407ff4:	afb30054 	sw	s3,84(sp)
  407ff8:	afb20050 	sw	s2,80(sp)
  407ffc:	afb1004c 	sw	s1,76(sp)
  408000:	afb00048 	sw	s0,72(sp)
  408004:	afbc0010 	sw	gp,16(sp)
  408008:	00801821 	move	v1,a0
  40800c:	10800069 	beqz	a0,4081b4 <busybox_main+0x2674>
  408010:	00a0a821 	move	s5,a1
  408014:	28a20002 	slti	v0,a1,2
  408018:	14400066 	bnez	v0,4081b4 <busybox_main+0x2674>
  40801c:	00058043 	sra	s0,a1,0x1
  408020:	2408fffc 	li	t0,-4
  408024:	3c0c0046 	lui	t4,0x46
  408028:	3c1e7000 	lui	s8,0x7000
  40802c:	3c0d1000 	lui	t5,0x1000
  408030:	3c0e2000 	lui	t6,0x2000
  408034:	3c0f3000 	lui	t7,0x3000
  408038:	08102067 	j	40819c <busybox_main+0x265c>
  40803c:	3c184000 	lui	t8,0x4000
  408040:	0810205d 	j	408174 <busybox_main+0x2634>
  408044:	02c09821 	move	s3,s6
  408048:	026a3021 	addu	a2,s3,t2
  40804c:	00fe1024 	and	v0,a3,s8
  408050:	8e710000 	lw	s1,0(s3)
  408054:	144d0004 	bne	v0,t5,408068 <busybox_main+0x2528>
  408058:	8cd20000 	lw	s2,0(a2)
  40805c:	8e440044 	lw	a0,68(s2)
  408060:	08102033 	j	4080cc <busybox_main+0x258c>
  408064:	8e220044 	lw	v0,68(s1)
  408068:	144e0004 	bne	v0,t6,40807c <busybox_main+0x253c>
  40806c:	00000000 	nop
  408070:	8e440048 	lw	a0,72(s2)
  408074:	08102033 	j	4080cc <busybox_main+0x258c>
  408078:	8e220048 	lw	v0,72(s1)
  40807c:	144f0004 	bne	v0,t7,408090 <busybox_main+0x2550>
  408080:	00000000 	nop
  408084:	8e440058 	lw	a0,88(s2)
  408088:	08102033 	j	4080cc <busybox_main+0x258c>
  40808c:	8e220058 	lw	v0,88(s1)
  408090:	14580004 	bne	v0,t8,4080a4 <busybox_main+0x2564>
  408094:	00000000 	nop
  408098:	8e440050 	lw	a0,80(s2)
  40809c:	08102033 	j	4080cc <busybox_main+0x258c>
  4080a0:	8e220050 	lw	v0,80(s1)
  4080a4:	545e000d 	bnel	v0,s8,4080dc <busybox_main+0x259c>
  4080a8:	8e240000 	lw	a0,0(s1)
  4080ac:	8e440020 	lw	a0,32(s2)
  4080b0:	8e220020 	lw	v0,32(s1)
  4080b4:	3084f000 	andi	a0,a0,0xf000
  4080b8:	3042f000 	andi	v0,v0,0xf000
  4080bc:	38844000 	xori	a0,a0,0x4000
  4080c0:	38424000 	xori	v0,v0,0x4000
  4080c4:	2c840001 	sltiu	a0,a0,1
  4080c8:	2c420001 	sltiu	v0,v0,1
  4080cc:	00821023 	subu	v0,a0,v0
  4080d0:	1440001f 	bnez	v0,408150 <busybox_main+0x2610>
  4080d4:	3c040800 	lui	a0,0x800
  4080d8:	8e240000 	lw	a0,0(s1)
  4080dc:	8e450000 	lw	a1,0(s2)
  4080e0:	8f9984f0 	lw	t9,-31504(gp)
  4080e4:	afa30020 	sw	v1,32(sp)
  4080e8:	afa60018 	sw	a2,24(sp)
  4080ec:	afa7001c 	sw	a3,28(sp)
  4080f0:	afa80030 	sw	t0,48(sp)
  4080f4:	afa9002c 	sw	t1,44(sp)
  4080f8:	afaa0028 	sw	t2,40(sp)
  4080fc:	afab0024 	sw	t3,36(sp)
  408100:	afac0034 	sw	t4,52(sp)
  408104:	afad0038 	sw	t5,56(sp)
  408108:	afae003c 	sw	t6,60(sp)
  40810c:	afaf0040 	sw	t7,64(sp)
  408110:	0320f809 	jalr	t9
  408114:	afb80044 	sw	t8,68(sp)
  408118:	8fbc0010 	lw	gp,16(sp)
  40811c:	8fb80044 	lw	t8,68(sp)
  408120:	8faf0040 	lw	t7,64(sp)
  408124:	8fae003c 	lw	t6,60(sp)
  408128:	8fad0038 	lw	t5,56(sp)
  40812c:	8fac0034 	lw	t4,52(sp)
  408130:	8fab0024 	lw	t3,36(sp)
  408134:	8faa0028 	lw	t2,40(sp)
  408138:	8fa9002c 	lw	t1,44(sp)
  40813c:	8fa80030 	lw	t0,48(sp)
  408140:	8fa7001c 	lw	a3,28(sp)
  408144:	8fa60018 	lw	a2,24(sp)
  408148:	8fa30020 	lw	v1,32(sp)
  40814c:	3c040800 	lui	a0,0x800
  408150:	00e43824 	and	a3,a3,a0
  408154:	00022023 	negu	a0,v0
  408158:	0087100b 	movn	v0,a0,a3
  40815c:	58400008 	blezl	v0,408180 <busybox_main+0x2640>
  408160:	26940001 	addiu	s4,s4,1
  408164:	ae720000 	sw	s2,0(s3)
  408168:	02e9b821 	addu	s7,s7,t1
  40816c:	acd10000 	sw	s1,0(a2)
  408170:	026b9821 	addu	s3,s3,t3
  408174:	06e1ffb4 	bgez	s7,408048 <busybox_main+0x2508>
  408178:	8d875b40 	lw	a3,23360(t4)
  40817c:	26940001 	addiu	s4,s4,1
  408180:	26d60004 	addiu	s6,s6,4
  408184:	0295102a 	slt	v0,s4,s5
  408188:	5440ffad 	bnezl	v0,408040 <busybox_main+0x2500>
  40818c:	0290b823 	subu	s7,s4,s0
  408190:	00108043 	sra	s0,s0,0x1
  408194:	12000008 	beqz	s0,4081b8 <busybox_main+0x2678>
  408198:	8fbf006c 	lw	ra,108(sp)
  40819c:	0060b021 	move	s6,v1
  4081a0:	0200a021 	move	s4,s0
  4081a4:	72085802 	mul	t3,s0,t0
  4081a8:	00105080 	sll	t2,s0,0x2
  4081ac:	08102061 	j	408184 <busybox_main+0x2644>
  4081b0:	00104823 	negu	t1,s0
  4081b4:	8fbf006c 	lw	ra,108(sp)
  4081b8:	8fbe0068 	lw	s8,104(sp)
  4081bc:	8fb70064 	lw	s7,100(sp)
  4081c0:	8fb60060 	lw	s6,96(sp)
  4081c4:	8fb5005c 	lw	s5,92(sp)
  4081c8:	8fb40058 	lw	s4,88(sp)
  4081cc:	8fb30054 	lw	s3,84(sp)
  4081d0:	8fb20050 	lw	s2,80(sp)
  4081d4:	8fb1004c 	lw	s1,76(sp)
  4081d8:	8fb00048 	lw	s0,72(sp)
  4081dc:	03e00008 	jr	ra
  4081e0:	27bd0070 	addiu	sp,sp,112
  4081e4:	3c020046 	lui	v0,0x46
  4081e8:	8c425b40 	lw	v0,23360(v0)
  4081ec:	30424000 	andi	v0,v0,0x4000
  4081f0:	50400009 	beqzl	v0,408218 <busybox_main+0x26d8>
  4081f4:	00042302 	srl	a0,a0,0xc
  4081f8:	3083f000 	andi	v1,a0,0xf000
  4081fc:	34028000 	li	v0,0x8000
  408200:	54620005 	bnel	v1,v0,408218 <busybox_main+0x26d8>
  408204:	00042302 	srl	a0,a0,0xc
  408208:	30830049 	andi	v1,a0,0x49
  40820c:	14600007 	bnez	v1,40822c <busybox_main+0x26ec>
  408210:	2402002a 	li	v0,42
  408214:	00042302 	srl	a0,a0,0xc
  408218:	3c020045 	lui	v0,0x45
  40821c:	2442bef0 	addiu	v0,v0,-16656
  408220:	3084000f 	andi	a0,a0,0xf
  408224:	00822021 	addu	a0,a0,v0
  408228:	80820000 	lb	v0,0(a0)
  40822c:	03e00008 	jr	ra
  408230:	00000000 	nop
  408234:	3c1c0047 	lui	gp,0x47
  408238:	27bdfee0 	addiu	sp,sp,-288
  40823c:	279cd250 	addiu	gp,gp,-11696
  408240:	afb30104 	sw	s3,260(sp)
  408244:	afbf011c 	sw	ra,284(sp)
  408248:	afbe0118 	sw	s8,280(sp)
  40824c:	afb70114 	sw	s7,276(sp)
  408250:	afb60110 	sw	s6,272(sp)
  408254:	afb5010c 	sw	s5,268(sp)
  408258:	afb40108 	sw	s4,264(sp)
  40825c:	afb20100 	sw	s2,256(sp)
  408260:	afb100fc 	sw	s1,252(sp)
  408264:	afb000f8 	sw	s0,248(sp)
  408268:	afbc0010 	sw	gp,16(sp)
  40826c:	afa40120 	sw	a0,288(sp)
  408270:	108001a9 	beqz	a0,408918 <busybox_main+0x2dd8>
  408274:	00a09821 	move	s3,a1
  408278:	18a001a7 	blez	a1,408918 <busybox_main+0x2dd8>
  40827c:	3c150046 	lui	s5,0x46
  408280:	8ea25b40 	lw	v0,23360(s5)
  408284:	3c030040 	lui	v1,0x40
  408288:	00621024 	and	v0,v1,v0
  40828c:	14400028 	bnez	v0,408330 <busybox_main+0x27f0>
  408290:	00a0f021 	move	s8,a1
  408294:	00809021 	move	s2,a0
  408298:	00008021 	move	s0,zero
  40829c:	00008821 	move	s1,zero
  4082a0:	24160008 	li	s6,8
  4082a4:	24140005 	li	s4,5
  4082a8:	8e420000 	lw	v0,0(s2)
  4082ac:	8f998038 	lw	t9,-32712(gp)
  4082b0:	8c440000 	lw	a0,0(v0)
  4082b4:	0320f809 	jalr	t9
  4082b8:	26310001 	addiu	s1,s1,1
  4082bc:	8ea35b40 	lw	v1,23360(s5)
  4082c0:	02c02821 	move	a1,s6
  4082c4:	30640001 	andi	a0,v1,0x1
  4082c8:	0004280a 	movz	a1,zero,a0
  4082cc:	00a22021 	addu	a0,a1,v0
  4082d0:	30630002 	andi	v1,v1,0x2
  4082d4:	02801021 	move	v0,s4
  4082d8:	0003100a 	movz	v0,zero,v1
  4082dc:	00822021 	addu	a0,a0,v0
  4082e0:	0204102a 	slt	v0,s0,a0
  4082e4:	8fbc0010 	lw	gp,16(sp)
  4082e8:	0082800b 	movn	s0,a0,v0
  4082ec:	1633ffee 	bne	s1,s3,4082a8 <busybox_main+0x2768>
  4082f0:	26520004 	addiu	s2,s2,4
  4082f4:	26100002 	addiu	s0,s0,2
  4082f8:	24120050 	li	s2,80
  4082fc:	0250001a 	div	zero,s2,s0
  408300:	020001f4 	teq	s0,zero,0x7
  408304:	00009012 	mflo	s2
  408308:	2a420002 	slti	v0,s2,2
  40830c:	1440000a 	bnez	v0,408338 <busybox_main+0x27f8>
  408310:	afb000d0 	sw	s0,208(sp)
  408314:	0272001a 	div	zero,s3,s2
  408318:	024001f4 	teq	s2,zero,0x7
  40831c:	00001812 	mflo	v1
  408320:	7072f002 	mul	s8,v1,s2
  408324:	03d3f02a 	slt	s8,s8,s3
  408328:	081020d0 	j	408340 <busybox_main+0x2800>
  40832c:	03c3f021 	addu	s8,s8,v1
  408330:	081020cf 	j	40833c <busybox_main+0x27fc>
  408334:	afa000d0 	sw	zero,208(sp)
  408338:	0260f021 	move	s8,s3
  40833c:	24120001 	li	s2,1
  408340:	afa000e8 	sw	zero,232(sp)
  408344:	afa000e4 	sw	zero,228(sp)
  408348:	08102240 	j	408900 <busybox_main+0x2dc0>
  40834c:	0000b821 	move	s7,zero
  408350:	8ea25b40 	lw	v0,23360(s5)
  408354:	8fa300d4 	lw	v1,212(sp)
  408358:	8fa400e8 	lw	a0,232(sp)
  40835c:	3c100010 	lui	s0,0x10
  408360:	02028024 	and	s0,s0,v0
  408364:	00641021 	addu	v0,v1,a0
  408368:	8fa300e0 	lw	v1,224(sp)
  40836c:	0050180b 	movn	v1,v0,s0
  408370:	0073102a 	slt	v0,v1,s3
  408374:	1040013f 	beqz	v0,408874 <busybox_main+0x2d34>
  408378:	00608021 	move	s0,v1
  40837c:	1a80001b 	blez	s4,4083ec <busybox_main+0x28ac>
  408380:	8fa300e4 	lw	v1,228(sp)
  408384:	8f968478 	lw	s6,-31624(gp)
  408388:	0074a023 	subu	s4,v1,s4
  40838c:	081020f8 	j	4083e0 <busybox_main+0x28a0>
  408390:	24110020 	li	s1,32
  408394:	8ca20048 	lw	v0,72(a1)
  408398:	1040000c 	beqz	v0,4083cc <busybox_main+0x288c>
  40839c:	8f998494 	lw	t9,-31596(gp)
  4083a0:	8ca20010 	lw	v0,16(a1)
  4083a4:	8ca3001c 	lw	v1,28(a1)
  4083a8:	0043182b 	sltu	v1,v0,v1
  4083ac:	10600005 	beqz	v1,4083c4 <busybox_main+0x2884>
  4083b0:	24040020 	li	a0,32
  4083b4:	a0510000 	sb	s1,0(v0)
  4083b8:	24420001 	addiu	v0,v0,1
  4083bc:	081020f7 	j	4083dc <busybox_main+0x289c>
  4083c0:	aca20010 	sw	v0,16(a1)
  4083c4:	081020f4 	j	4083d0 <busybox_main+0x2890>
  4083c8:	8f9983c0 	lw	t9,-31808(gp)
  4083cc:	24040020 	li	a0,32
  4083d0:	0320f809 	jalr	t9
  4083d4:	00000000 	nop
  4083d8:	8fbc0010 	lw	gp,16(sp)
  4083dc:	2694ffff 	addiu	s4,s4,-1
  4083e0:	5680ffec 	bnezl	s4,408394 <busybox_main+0x2854>
  4083e4:	8ec50000 	lw	a1,0(s6)
  4083e8:	8fb400e4 	lw	s4,228(sp)
  4083ec:	8fa300d0 	lw	v1,208(sp)
  4083f0:	00108080 	sll	s0,s0,0x2
  4083f4:	02831821 	addu	v1,s4,v1
  4083f8:	afa300e4 	sw	v1,228(sp)
  4083fc:	8fa30120 	lw	v1,288(sp)
  408400:	00708021 	addu	s0,v1,s0
  408404:	8e110000 	lw	s1,0(s0)
  408408:	8e220004 	lw	v0,4(s1)
  40840c:	10400118 	beqz	v0,408870 <busybox_main+0x2d30>
  408410:	00008021 	move	s0,zero
  408414:	8e220050 	lw	v0,80(s1)
  408418:	3c030100 	lui	v1,0x100
  40841c:	afa20018 	sw	v0,24(sp)
  408420:	8ea25b40 	lw	v0,23360(s5)
  408424:	00431824 	and	v1,v0,v1
  408428:	10600004 	beqz	v1,40843c <busybox_main+0x28fc>
  40842c:	3c030080 	lui	v1,0x80
  408430:	8e230048 	lw	v1,72(s1)
  408434:	afa30018 	sw	v1,24(sp)
  408438:	3c030080 	lui	v1,0x80
  40843c:	00431024 	and	v0,v0,v1
  408440:	10400003 	beqz	v0,408450 <busybox_main+0x2910>
  408444:	8f99866c 	lw	t9,-31124(gp)
  408448:	8e220058 	lw	v0,88(s1)
  40844c:	afa20018 	sw	v0,24(sp)
  408450:	0320f809 	jalr	t9
  408454:	27a40018 	addiu	a0,sp,24
  408458:	afa200d8 	sw	v0,216(sp)
  40845c:	8ea25b40 	lw	v0,23360(s5)
  408460:	8fbc0010 	lw	gp,16(sp)
  408464:	30422000 	andi	v0,v0,0x2000
  408468:	8e240020 	lw	a0,32(s1)
  40846c:	10400005 	beqz	v0,408484 <busybox_main+0x2944>
  408470:	0000b021 	move	s6,zero
  408474:	0c102079 	jal	4081e4 <busybox_main+0x26a4>
  408478:	00000000 	nop
  40847c:	8fbc0010 	lw	gp,16(sp)
  408480:	0040b021 	move	s6,v0
  408484:	00008021 	move	s0,zero
  408488:	afa000dc 	sw	zero,220(sp)
  40848c:	8fa500dc 	lw	a1,220(sp)
  408490:	8ea35b40 	lw	v1,23360(s5)
  408494:	24040001 	li	a0,1
  408498:	00a41004 	sllv	v0,a0,a1
  40849c:	00431024 	and	v0,v0,v1
  4084a0:	24050080 	li	a1,128
  4084a4:	10450069 	beq	v0,a1,40864c <busybox_main+0x2b0c>
  4084a8:	2c450081 	sltiu	a1,v0,129
  4084ac:	50a00014 	beqzl	a1,408500 <busybox_main+0x29c0>
  4084b0:	24040400 	li	a0,1024
  4084b4:	24030004 	li	v1,4
  4084b8:	10430036 	beq	v0,v1,408594 <busybox_main+0x2a54>
  4084bc:	2c430005 	sltiu	v1,v0,5
  4084c0:	10600007 	beqz	v1,4084e0 <busybox_main+0x29a0>
  4084c4:	24030010 	li	v1,16
  4084c8:	10440021 	beq	v0,a0,408550 <busybox_main+0x2a10>
  4084cc:	24030002 	li	v1,2
  4084d0:	144300e3 	bne	v0,v1,408860 <busybox_main+0x2d20>
  4084d4:	8fa300dc 	lw	v1,220(sp)
  4084d8:	08102158 	j	408560 <busybox_main+0x2a20>
  4084dc:	8e260068 	lw	a2,104(s1)
  4084e0:	1043003b 	beq	v0,v1,4085d0 <busybox_main+0x2a90>
  4084e4:	24030020 	li	v1,32
  4084e8:	10430053 	beq	v0,v1,408638 <busybox_main+0x2af8>
  4084ec:	24030008 	li	v1,8
  4084f0:	144300db 	bne	v0,v1,408860 <busybox_main+0x2d20>
  4084f4:	8fa300dc 	lw	v1,220(sp)
  4084f8:	08102171 	j	4085c4 <busybox_main+0x2a84>
  4084fc:	3c040045 	lui	a0,0x45
  408500:	10440072 	beq	v0,a0,4086cc <busybox_main+0x2b8c>
  408504:	8f998818 	lw	t9,-30696(gp)
  408508:	2c440401 	sltiu	a0,v0,1025
  40850c:	50800008 	beqzl	a0,408530 <busybox_main+0x29f0>
  408510:	24031000 	li	v1,4096
  408514:	24040100 	li	a0,256
  408518:	1044004c 	beq	v0,a0,40864c <busybox_main+0x2b0c>
  40851c:	24040200 	li	a0,512
  408520:	544400cf 	bnel	v0,a0,408860 <busybox_main+0x2d20>
  408524:	8fa300dc 	lw	v1,220(sp)
  408528:	081021ba 	j	4086e8 <busybox_main+0x2ba8>
  40852c:	30630400 	andi	v1,v1,0x400
  408530:	10430094 	beq	v0,v1,408784 <busybox_main+0x2c44>
  408534:	24032000 	li	v1,8192
  408538:	104300bf 	beq	v0,v1,408838 <busybox_main+0x2cf8>
  40853c:	24030800 	li	v1,2048
  408540:	144300c7 	bne	v0,v1,408860 <busybox_main+0x2d20>
  408544:	8fa300dc 	lw	v1,220(sp)
  408548:	081021de 	j	408778 <busybox_main+0x2c38>
  40854c:	3c040045 	lui	a0,0x45
  408550:	3c040045 	lui	a0,0x45
  408554:	2484bf90 	addiu	a0,a0,-16496
  408558:	0810216c 	j	4085b0 <busybox_main+0x2a70>
  40855c:	8e25001c 	lw	a1,28(s1)
  408560:	8e27006c 	lw	a3,108(s1)
  408564:	000617c0 	sll	v0,a2,0x1f
  408568:	00073842 	srl	a3,a3,0x1
  40856c:	3c040045 	lui	a0,0x45
  408570:	2484bf98 	addiu	a0,a0,-16488
  408574:	00063043 	sra	a2,a2,0x1
  408578:	00473825 	or	a3,v0,a3
  40857c:	8f998818 	lw	t9,-30696(gp)
  408580:	0320f809 	jalr	t9
  408584:	00000000 	nop
  408588:	8fbc0010 	lw	gp,16(sp)
  40858c:	08102217 	j	40885c <busybox_main+0x2d1c>
  408590:	02028021 	addu	s0,s0,v0
  408594:	8f9980f8 	lw	t9,-32520(gp)
  408598:	0320f809 	jalr	t9
  40859c:	8e240020 	lw	a0,32(s1)
  4085a0:	3c040045 	lui	a0,0x45
  4085a4:	8fbc0010 	lw	gp,16(sp)
  4085a8:	2484bfa0 	addiu	a0,a0,-16480
  4085ac:	00402821 	move	a1,v0
  4085b0:	8f998818 	lw	t9,-30696(gp)
  4085b4:	0320f809 	jalr	t9
  4085b8:	00000000 	nop
  4085bc:	08102163 	j	40858c <busybox_main+0x2a4c>
  4085c0:	8fbc0010 	lw	gp,16(sp)
  4085c4:	2484bfa8 	addiu	a0,a0,-16472
  4085c8:	0810216c 	j	4085b0 <busybox_main+0x2a70>
  4085cc:	8e250024 	lw	a1,36(s1)
  4085d0:	8f9980fc 	lw	t9,-32516(gp)
  4085d4:	8e250028 	lw	a1,40(s1)
  4085d8:	24060010 	li	a2,16
  4085dc:	0320f809 	jalr	t9
  4085e0:	27a4001c 	addiu	a0,sp,28
  4085e4:	8fbc0010 	lw	gp,16(sp)
  4085e8:	3c040045 	lui	a0,0x45
  4085ec:	8f998818 	lw	t9,-30696(gp)
  4085f0:	2484bfb0 	addiu	a0,a0,-16464
  4085f4:	0320f809 	jalr	t9
  4085f8:	27a5001c 	addiu	a1,sp,28
  4085fc:	8fbc0010 	lw	gp,16(sp)
  408600:	8e25002c 	lw	a1,44(s1)
  408604:	8f998100 	lw	t9,-32512(gp)
  408608:	27a4001c 	addiu	a0,sp,28
  40860c:	0320f809 	jalr	t9
  408610:	24060010 	li	a2,16
  408614:	8fbc0010 	lw	gp,16(sp)
  408618:	3c040045 	lui	a0,0x45
  40861c:	8f998818 	lw	t9,-30696(gp)
  408620:	2484bfb8 	addiu	a0,a0,-16456
  408624:	0320f809 	jalr	t9
  408628:	27a5001c 	addiu	a1,sp,28
  40862c:	26100011 	addiu	s0,s0,17
  408630:	08102217 	j	40885c <busybox_main+0x2d1c>
  408634:	8fbc0010 	lw	gp,16(sp)
  408638:	3c040045 	lui	a0,0x45
  40863c:	2484bfc0 	addiu	a0,a0,-16448
  408640:	8e250028 	lw	a1,40(s1)
  408644:	081021aa 	j	4086a8 <busybox_main+0x2b68>
  408648:	8e26002c 	lw	a2,44(s1)
  40864c:	8e220020 	lw	v0,32(s1)
  408650:	24036000 	li	v1,24576
  408654:	3042f000 	andi	v0,v0,0xf000
  408658:	10430003 	beq	v0,v1,408668 <busybox_main+0x2b28>
  40865c:	24032000 	li	v1,8192
  408660:	14430016 	bne	v0,v1,4086bc <busybox_main+0x2b7c>
  408664:	3c040045 	lui	a0,0x45
  408668:	8e240030 	lw	a0,48(s1)
  40866c:	8e220034 	lw	v0,52(s1)
  408670:	2405f000 	li	a1,-4096
  408674:	00043500 	sll	a2,a0,0x14
  408678:	00a42824 	and	a1,a1,a0
  40867c:	00022302 	srl	a0,v0,0xc
  408680:	00c42025 	or	a0,a2,a0
  408684:	00021a02 	srl	v1,v0,0x8
  408688:	2406ff00 	li	a2,-256
  40868c:	00c43024 	and	a2,a2,a0
  408690:	30630fff 	andi	v1,v1,0xfff
  408694:	304200ff 	andi	v0,v0,0xff
  408698:	3c040045 	lui	a0,0x45
  40869c:	2484bfcc 	addiu	a0,a0,-16436
  4086a0:	00a32825 	or	a1,a1,v1
  4086a4:	00c23025 	or	a2,a2,v0
  4086a8:	8f998818 	lw	t9,-30696(gp)
  4086ac:	0320f809 	jalr	t9
  4086b0:	00000000 	nop
  4086b4:	08102163 	j	40858c <busybox_main+0x2a4c>
  4086b8:	8fbc0010 	lw	gp,16(sp)
  4086bc:	2484bfd8 	addiu	a0,a0,-16424
  4086c0:	8e270044 	lw	a3,68(s1)
  4086c4:	0810215f 	j	40857c <busybox_main+0x2a3c>
  4086c8:	8e260040 	lw	a2,64(s1)
  4086cc:	3c040045 	lui	a0,0x45
  4086d0:	8fa500d8 	lw	a1,216(sp)
  4086d4:	0320f809 	jalr	t9
  4086d8:	2484bfe0 	addiu	a0,a0,-16416
  4086dc:	26100019 	addiu	s0,s0,25
  4086e0:	08102217 	j	40885c <busybox_main+0x2d1c>
  4086e4:	8fbc0010 	lw	gp,16(sp)
  4086e8:	1460005d 	bnez	v1,408860 <busybox_main+0x2d20>
  4086ec:	8fa300dc 	lw	v1,220(sp)
  4086f0:	8f998510 	lw	t9,-31472(gp)
  4086f4:	0320f809 	jalr	t9
  4086f8:	00002021 	move	a0,zero
  4086fc:	8fa30018 	lw	v1,24(sp)
  408700:	8fbc0010 	lw	gp,16(sp)
  408704:	00431823 	subu	v1,v0,v1
  408708:	8fa200d8 	lw	v0,216(sp)
  40870c:	3c040045 	lui	a0,0x45
  408710:	8f998818 	lw	t9,-30696(gp)
  408714:	afa300f0 	sw	v1,240(sp)
  408718:	2484bfec 	addiu	a0,a0,-16404
  40871c:	0320f809 	jalr	t9
  408720:	24450004 	addiu	a1,v0,4
  408724:	8fa300f0 	lw	v1,240(sp)
  408728:	3c0200f0 	lui	v0,0xf0
  40872c:	8fbc0010 	lw	gp,16(sp)
  408730:	24630383 	addiu	v1,v1,899
  408734:	34429d43 	ori	v0,v0,0x9d43
  408738:	0062182b 	sltu	v1,v1,v0
  40873c:	10600006 	beqz	v1,408758 <busybox_main+0x2c18>
  408740:	8f998818 	lw	t9,-30696(gp)
  408744:	8fa300d8 	lw	v1,216(sp)
  408748:	3c040045 	lui	a0,0x45
  40874c:	2484bff4 	addiu	a0,a0,-16396
  408750:	081021da 	j	408768 <busybox_main+0x2c28>
  408754:	2465000b 	addiu	a1,v1,11
  408758:	8fa300d8 	lw	v1,216(sp)
  40875c:	3c040045 	lui	a0,0x45
  408760:	2484bffc 	addiu	a0,a0,-16388
  408764:	24650014 	addiu	a1,v1,20
  408768:	0320f809 	jalr	t9
  40876c:	2610000d 	addiu	s0,s0,13
  408770:	08102217 	j	40885c <busybox_main+0x2d1c>
  408774:	8fbc0010 	lw	gp,16(sp)
  408778:	2484f150 	addiu	a0,a0,-3760
  40877c:	0810216c 	j	4085b0 <busybox_main+0x2a70>
  408780:	8e250000 	lw	a1,0(s1)
  408784:	8e230020 	lw	v1,32(s1)
  408788:	3402a000 	li	v0,0xa000
  40878c:	3063f000 	andi	v1,v1,0xf000
  408790:	14620033 	bne	v1,v0,408860 <busybox_main+0x2d20>
  408794:	8fa300dc 	lw	v1,220(sp)
  408798:	8f998104 	lw	t9,-32508(gp)
  40879c:	0320f809 	jalr	t9
  4087a0:	8e240004 	lw	a0,4(s1)
  4087a4:	afa200ec 	sw	v0,236(sp)
  4087a8:	1040002c 	beqz	v0,40885c <busybox_main+0x2d1c>
  4087ac:	8fbc0010 	lw	gp,16(sp)
  4087b0:	8f998818 	lw	t9,-30696(gp)
  4087b4:	3c050045 	lui	a1,0x45
  4087b8:	0320f809 	jalr	t9
  4087bc:	24a4c004 	addiu	a0,a1,-16380
  4087c0:	8fbc0010 	lw	gp,16(sp)
  4087c4:	8e240004 	lw	a0,4(s1)
  4087c8:	8f9987f0 	lw	t9,-30736(gp)
  4087cc:	0320f809 	jalr	t9
  4087d0:	27a50030 	addiu	a1,sp,48
  4087d4:	1440000b 	bnez	v0,408804 <busybox_main+0x2cc4>
  4087d8:	8fbc0010 	lw	gp,16(sp)
  4087dc:	3c030046 	lui	v1,0x46
  4087e0:	8c625b40 	lw	v0,23360(v1)
  4087e4:	8fa40048 	lw	a0,72(sp)
  4087e8:	30422000 	andi	v0,v0,0x2000
  4087ec:	10400005 	beqz	v0,408804 <busybox_main+0x2cc4>
  4087f0:	0000b021 	move	s6,zero
  4087f4:	0c102079 	jal	4081e4 <busybox_main+0x26a4>
  4087f8:	00000000 	nop
  4087fc:	8fbc0010 	lw	gp,16(sp)
  408800:	0040b021 	move	s6,v0
  408804:	8f998818 	lw	t9,-30696(gp)
  408808:	8fa500ec 	lw	a1,236(sp)
  40880c:	3c040045 	lui	a0,0x45
  408810:	0320f809 	jalr	t9
  408814:	2484f150 	addiu	a0,a0,-3760
  408818:	8fbc0010 	lw	gp,16(sp)
  40881c:	8fa400ec 	lw	a0,236(sp)
  408820:	8f9983c8 	lw	t9,-31800(gp)
  408824:	24420004 	addiu	v0,v0,4
  408828:	0320f809 	jalr	t9
  40882c:	02028021 	addu	s0,s0,v0
  408830:	08102217 	j	40885c <busybox_main+0x2d1c>
  408834:	8fbc0010 	lw	gp,16(sp)
  408838:	12c00009 	beqz	s6,408860 <busybox_main+0x2d20>
  40883c:	8fa300dc 	lw	v1,220(sp)
  408840:	8f998818 	lw	t9,-30696(gp)
  408844:	3c040045 	lui	a0,0x45
  408848:	2484c00c 	addiu	a0,a0,-16372
  40884c:	0320f809 	jalr	t9
  408850:	02c02821 	move	a1,s6
  408854:	8fbc0010 	lw	gp,16(sp)
  408858:	26100001 	addiu	s0,s0,1
  40885c:	8fa300dc 	lw	v1,220(sp)
  408860:	24020020 	li	v0,32
  408864:	24630001 	addiu	v1,v1,1
  408868:	1462ff08 	bne	v1,v0,40848c <busybox_main+0x294c>
  40886c:	afa300dc 	sw	v1,220(sp)
  408870:	0290a021 	addu	s4,s4,s0
  408874:	8fa300d4 	lw	v1,212(sp)
  408878:	24630001 	addiu	v1,v1,1
  40887c:	afa300d4 	sw	v1,212(sp)
  408880:	8fa300e0 	lw	v1,224(sp)
  408884:	007e1821 	addu	v1,v1,s8
  408888:	afa300e0 	sw	v1,224(sp)
  40888c:	8fa300d4 	lw	v1,212(sp)
  408890:	0072102a 	slt	v0,v1,s2
  408894:	1440feb0 	bnez	v0,408358 <busybox_main+0x2818>
  408898:	8ea25b40 	lw	v0,23360(s5)
  40889c:	8f828478 	lw	v0,-31624(gp)
  4088a0:	8c450000 	lw	a1,0(v0)
  4088a4:	8ca20048 	lw	v0,72(a1)
  4088a8:	1040000d 	beqz	v0,4088e0 <busybox_main+0x2da0>
  4088ac:	8f998494 	lw	t9,-31596(gp)
  4088b0:	8ca20010 	lw	v0,16(a1)
  4088b4:	8ca3001c 	lw	v1,28(a1)
  4088b8:	0043182b 	sltu	v1,v0,v1
  4088bc:	10600005 	beqz	v1,4088d4 <busybox_main+0x2d94>
  4088c0:	2403000a 	li	v1,10
  4088c4:	a0430000 	sb	v1,0(v0)
  4088c8:	24420001 	addiu	v0,v0,1
  4088cc:	0810223c 	j	4088f0 <busybox_main+0x2db0>
  4088d0:	aca20010 	sw	v0,16(a1)
  4088d4:	2404000a 	li	a0,10
  4088d8:	08102239 	j	4088e4 <busybox_main+0x2da4>
  4088dc:	8f9983c0 	lw	t9,-31808(gp)
  4088e0:	2404000a 	li	a0,10
  4088e4:	0320f809 	jalr	t9
  4088e8:	00000000 	nop
  4088ec:	8fbc0010 	lw	gp,16(sp)
  4088f0:	8fa300e8 	lw	v1,232(sp)
  4088f4:	26f70001 	addiu	s7,s7,1
  4088f8:	00721821 	addu	v1,v1,s2
  4088fc:	afa300e8 	sw	v1,232(sp)
  408900:	02fe102a 	slt	v0,s7,s8
  408904:	10400004 	beqz	v0,408918 <busybox_main+0x2dd8>
  408908:	0000a021 	move	s4,zero
  40890c:	afb700e0 	sw	s7,224(sp)
  408910:	081020d4 	j	408350 <busybox_main+0x2810>
  408914:	afa000d4 	sw	zero,212(sp)
  408918:	8fbf011c 	lw	ra,284(sp)
  40891c:	8fbe0118 	lw	s8,280(sp)
  408920:	8fb70114 	lw	s7,276(sp)
  408924:	8fb60110 	lw	s6,272(sp)
  408928:	8fb5010c 	lw	s5,268(sp)
  40892c:	8fb40108 	lw	s4,264(sp)
  408930:	8fb30104 	lw	s3,260(sp)
  408934:	8fb20100 	lw	s2,256(sp)
  408938:	8fb100fc 	lw	s1,252(sp)
  40893c:	8fb000f8 	lw	s0,248(sp)
  408940:	03e00008 	jr	ra
  408944:	27bd0120 	addiu	sp,sp,288
  408948:	3c020046 	lui	v0,0x46
  40894c:	8c425b40 	lw	v0,23360(v0)
  408950:	3c1c0047 	lui	gp,0x47
  408954:	3c030200 	lui	v1,0x200
  408958:	27bdff38 	addiu	sp,sp,-200
  40895c:	279cd250 	addiu	gp,gp,-11696
  408960:	00621024 	and	v0,v1,v0
  408964:	afb200c0 	sw	s2,192(sp)
  408968:	afb100bc 	sw	s1,188(sp)
  40896c:	00a09021 	move	s2,a1
  408970:	afbf00c4 	sw	ra,196(sp)
  408974:	afb000b8 	sw	s0,184(sp)
  408978:	afbc0010 	sw	gp,16(sp)
  40897c:	00808821 	move	s1,a0
  408980:	10400003 	beqz	v0,408990 <busybox_main+0x2e50>
  408984:	27a50018 	addiu	a1,sp,24
  408988:	08102265 	j	408994 <busybox_main+0x2e54>
  40898c:	8f9987f0 	lw	t9,-30736(gp)
  408990:	8f998574 	lw	t9,-31372(gp)
  408994:	0320f809 	jalr	t9
  408998:	00000000 	nop
  40899c:	1040000b 	beqz	v0,4089cc <busybox_main+0x2e8c>
  4089a0:	8fbc0010 	lw	gp,16(sp)
  4089a4:	8f998090 	lw	t9,-32624(gp)
  4089a8:	3c040045 	lui	a0,0x45
  4089ac:	2484f150 	addiu	a0,a0,-3760
  4089b0:	0320f809 	jalr	t9
  4089b4:	02202821 	move	a1,s1
  4089b8:	24030001 	li	v1,1
  4089bc:	3c020046 	lui	v0,0x46
  4089c0:	ac435b44 	sw	v1,23364(v0)
  4089c4:	0810227f 	j	4089fc <busybox_main+0x2ebc>
  4089c8:	00008021 	move	s0,zero
  4089cc:	8f998020 	lw	t9,-32736(gp)
  4089d0:	0320f809 	jalr	t9
  4089d4:	240400b0 	li	a0,176
  4089d8:	8fbc0010 	lw	gp,16(sp)
  4089dc:	ac510004 	sw	s1,4(v0)
  4089e0:	8f998770 	lw	t9,-30864(gp)
  4089e4:	ac520000 	sw	s2,0(v0)
  4089e8:	24440008 	addiu	a0,v0,8
  4089ec:	27a50018 	addiu	a1,sp,24
  4089f0:	240600a0 	li	a2,160
  4089f4:	0320f809 	jalr	t9
  4089f8:	00408021 	move	s0,v0
  4089fc:	8fbf00c4 	lw	ra,196(sp)
  408a00:	02001021 	move	v0,s0
  408a04:	8fb200c0 	lw	s2,192(sp)
  408a08:	8fb100bc 	lw	s1,188(sp)
  408a0c:	8fb000b8 	lw	s0,184(sp)
  408a10:	03e00008 	jr	ra
  408a14:	27bd00c8 	addiu	sp,sp,200
  408a18:	3c1c0047 	lui	gp,0x47
  408a1c:	27bdffb8 	addiu	sp,sp,-72
  408a20:	279cd250 	addiu	gp,gp,-11696
  408a24:	afb40030 	sw	s4,48(sp)
  408a28:	afb3002c 	sw	s3,44(sp)
  408a2c:	afbf0044 	sw	ra,68(sp)
  408a30:	afbe0040 	sw	s8,64(sp)
  408a34:	afb7003c 	sw	s7,60(sp)
  408a38:	afb60038 	sw	s6,56(sp)
  408a3c:	afb50034 	sw	s5,52(sp)
  408a40:	afb20028 	sw	s2,40(sp)
  408a44:	afb10024 	sw	s1,36(sp)
  408a48:	afb00020 	sw	s0,32(sp)
  408a4c:	afbc0010 	sw	gp,16(sp)
  408a50:	00a09821 	move	s3,a1
  408a54:	108000b8 	beqz	a0,408d38 <busybox_main+0x31f8>
  408a58:	00c0a021 	move	s4,a2
  408a5c:	18a000b6 	blez	a1,408d38 <busybox_main+0x31f8>
  408a60:	00808021 	move	s0,a0
  408a64:	00008821 	move	s1,zero
  408a68:	3c150046 	lui	s5,0x46
  408a6c:	3c120008 	lui	s2,0x8
  408a70:	8ea25b40 	lw	v0,23360(s5)
  408a74:	3c030008 	lui	v1,0x8
  408a78:	34638000 	ori	v1,v1,0x8000
  408a7c:	00431024 	and	v0,v0,v1
  408a80:	50400010 	beqzl	v0,408ac4 <busybox_main+0x2f84>
  408a84:	8e020000 	lw	v0,0(s0)
  408a88:	56800006 	bnezl	s4,408aa4 <busybox_main+0x2f64>
  408a8c:	8e020000 	lw	v0,0(s0)
  408a90:	8f998848 	lw	t9,-30648(gp)
  408a94:	0320f809 	jalr	t9
  408a98:	2404000a 	li	a0,10
  408a9c:	8fbc0010 	lw	gp,16(sp)
  408aa0:	8e020000 	lw	v0,0(s0)
  408aa4:	8f998818 	lw	t9,-30696(gp)
  408aa8:	3c040045 	lui	a0,0x45
  408aac:	8c450004 	lw	a1,4(v0)
  408ab0:	0320f809 	jalr	t9
  408ab4:	2484c010 	addiu	a0,a0,-16368
  408ab8:	8fbc0010 	lw	gp,16(sp)
  408abc:	0000a021 	move	s4,zero
  408ac0:	8e020000 	lw	v0,0(s0)
  408ac4:	8c5e0004 	lw	s8,4(v0)
  408ac8:	13c00098 	beqz	s8,408d2c <busybox_main+0x31ec>
  408acc:	8f99850c 	lw	t9,-31476(gp)
  408ad0:	0320f809 	jalr	t9
  408ad4:	03c02021 	move	a0,s8
  408ad8:	00401821 	move	v1,v0
  408adc:	14400039 	bnez	v0,408bc4 <busybox_main+0x3084>
  408ae0:	8fbc0010 	lw	gp,16(sp)
  408ae4:	8f998090 	lw	t9,-32624(gp)
  408ae8:	3c040045 	lui	a0,0x45
  408aec:	03c02821 	move	a1,s8
  408af0:	0320f809 	jalr	t9
  408af4:	2484f150 	addiu	a0,a0,-3760
  408af8:	24020001 	li	v0,1
  408afc:	3c050046 	lui	a1,0x46
  408b00:	8fbc0010 	lw	gp,16(sp)
  408b04:	0810234b 	j	408d2c <busybox_main+0x31ec>
  408b08:	aca25b44 	sw	v0,23364(a1)
  408b0c:	80440013 	lb	a0,19(v0)
  408b10:	2405002e 	li	a1,46
  408b14:	14850016 	bne	a0,a1,408b70 <busybox_main+0x3030>
  408b18:	8f9980c0 	lw	t9,-32576(gp)
  408b1c:	80440014 	lb	a0,20(v0)
  408b20:	10800007 	beqz	a0,408b40 <busybox_main+0x3000>
  408b24:	3c050046 	lui	a1,0x46
  408b28:	8c440014 	lw	a0,20(v0)
  408b2c:	3c05ffff 	lui	a1,0xffff
  408b30:	00a42024 	and	a0,a1,a0
  408b34:	3c052e00 	lui	a1,0x2e00
  408b38:	14850007 	bne	a0,a1,408b58 <busybox_main+0x3018>
  408b3c:	3c050046 	lui	a1,0x46
  408b40:	8ca45b40 	lw	a0,23360(a1)
  408b44:	3c050002 	lui	a1,0x2
  408b48:	00a42024 	and	a0,a1,a0
  408b4c:	10800020 	beqz	a0,408bd0 <busybox_main+0x3090>
  408b50:	8f9985a4 	lw	t9,-31324(gp)
  408b54:	3c050046 	lui	a1,0x46
  408b58:	8ca45b40 	lw	a0,23360(a1)
  408b5c:	3c050001 	lui	a1,0x1
  408b60:	00a42024 	and	a0,a1,a0
  408b64:	1080001a 	beqz	a0,408bd0 <busybox_main+0x3090>
  408b68:	8f9985a4 	lw	t9,-31324(gp)
  408b6c:	8f9980c0 	lw	t9,-32576(gp)
  408b70:	afa3001c 	sw	v1,28(sp)
  408b74:	03c02021 	move	a0,s8
  408b78:	0320f809 	jalr	t9
  408b7c:	24450013 	addiu	a1,v0,19
  408b80:	8fbc0010 	lw	gp,16(sp)
  408b84:	00402021 	move	a0,v0
  408b88:	8f998690 	lw	t9,-31088(gp)
  408b8c:	2405002f 	li	a1,47
  408b90:	0320f809 	jalr	t9
  408b94:	afa20018 	sw	v0,24(sp)
  408b98:	8fa60018 	lw	a2,24(sp)
  408b9c:	24450001 	addiu	a1,v0,1
  408ba0:	0c102252 	jal	408948 <busybox_main+0x2e08>
  408ba4:	00c02021 	move	a0,a2
  408ba8:	8fbc0010 	lw	gp,16(sp)
  408bac:	10400007 	beqz	v0,408bcc <busybox_main+0x308c>
  408bb0:	8fa3001c 	lw	v1,28(sp)
  408bb4:	ac5600a8 	sw	s6,168(v0)
  408bb8:	26f70001 	addiu	s7,s7,1
  408bbc:	081022f3 	j	408bcc <busybox_main+0x308c>
  408bc0:	0040b021 	move	s6,v0
  408bc4:	0000b821 	move	s7,zero
  408bc8:	0000b021 	move	s6,zero
  408bcc:	8f9985a4 	lw	t9,-31324(gp)
  408bd0:	00602021 	move	a0,v1
  408bd4:	0320f809 	jalr	t9
  408bd8:	afa3001c 	sw	v1,28(sp)
  408bdc:	8fbc0010 	lw	gp,16(sp)
  408be0:	1440ffca 	bnez	v0,408b0c <busybox_main+0x2fcc>
  408be4:	8fa3001c 	lw	v1,28(sp)
  408be8:	8f998400 	lw	t9,-31744(gp)
  408bec:	0320f809 	jalr	t9
  408bf0:	00602021 	move	a0,v1
  408bf4:	12c0004d 	beqz	s6,408d2c <busybox_main+0x31ec>
  408bf8:	8fbc0010 	lw	gp,16(sp)
  408bfc:	12e00007 	beqz	s7,408c1c <busybox_main+0x30dc>
  408c00:	0000f021 	move	s8,zero
  408c04:	8f9980c4 	lw	t9,-32572(gp)
  408c08:	02e02021 	move	a0,s7
  408c0c:	0320f809 	jalr	t9
  408c10:	24050004 	li	a1,4
  408c14:	8fbc0010 	lw	gp,16(sp)
  408c18:	0040f021 	move	s8,v0
  408c1c:	03c01821 	move	v1,s8
  408c20:	0810230d 	j	408c34 <busybox_main+0x30f4>
  408c24:	00001021 	move	v0,zero
  408c28:	8ed600a8 	lw	s6,168(s6)
  408c2c:	24420001 	addiu	v0,v0,1
  408c30:	24630004 	addiu	v1,v1,4
  408c34:	0057202a 	slt	a0,v0,s7
  408c38:	5480fffb 	bnezl	a0,408c28 <busybox_main+0x30e8>
  408c3c:	ac760000 	sw	s6,0(v1)
  408c40:	53c0003b 	beqzl	s8,408d30 <busybox_main+0x31f0>
  408c44:	26310001 	addiu	s1,s1,1
  408c48:	8fc20000 	lw	v0,0(s8)
  408c4c:	0000b021 	move	s6,zero
  408c50:	8c4200a8 	lw	v0,168(v0)
  408c54:	1440fffe 	bnez	v0,408c50 <busybox_main+0x3110>
  408c58:	26d60001 	addiu	s6,s6,1
  408c5c:	03c02021 	move	a0,s8
  408c60:	0c101ff4 	jal	407fd0 <busybox_main+0x2490>
  408c64:	02c02821 	move	a1,s6
  408c68:	03c02021 	move	a0,s8
  408c6c:	0c10208d 	jal	408234 <busybox_main+0x26f4>
  408c70:	02c02821 	move	a1,s6
  408c74:	3c030046 	lui	v1,0x46
  408c78:	8c625b40 	lw	v0,23360(v1)
  408c7c:	02421024 	and	v0,s2,v0
  408c80:	1040001a 	beqz	v0,408cec <busybox_main+0x31ac>
  408c84:	8fbc0010 	lw	gp,16(sp)
  408c88:	03c02021 	move	a0,s8
  408c8c:	02c02821 	move	a1,s6
  408c90:	0c101fa7 	jal	407e9c <busybox_main+0x235c>
  408c94:	24060002 	li	a2,2
  408c98:	03c02021 	move	a0,s8
  408c9c:	02c02821 	move	a1,s6
  408ca0:	00003021 	move	a2,zero
  408ca4:	0c101f88 	jal	407e20 <busybox_main+0x22e0>
  408ca8:	0040b821 	move	s7,v0
  408cac:	1840000f 	blez	v0,408cec <busybox_main+0x31ac>
  408cb0:	8fbc0010 	lw	gp,16(sp)
  408cb4:	00402821 	move	a1,v0
  408cb8:	02e02021 	move	a0,s7
  408cbc:	0c101ff4 	jal	407fd0 <busybox_main+0x2490>
  408cc0:	afa20018 	sw	v0,24(sp)
  408cc4:	8fa20018 	lw	v0,24(sp)
  408cc8:	02e02021 	move	a0,s7
  408ccc:	00402821 	move	a1,v0
  408cd0:	0c102286 	jal	408a18 <busybox_main+0x2ed8>
  408cd4:	00003021 	move	a2,zero
  408cd8:	8fbc0010 	lw	gp,16(sp)
  408cdc:	8f9983c8 	lw	t9,-31800(gp)
  408ce0:	0320f809 	jalr	t9
  408ce4:	02e02021 	move	a0,s7
  408ce8:	8fbc0010 	lw	gp,16(sp)
  408cec:	08102346 	j	408d18 <busybox_main+0x31d8>
  408cf0:	8fd60000 	lw	s6,0(s8)
  408cf4:	0320f809 	jalr	t9
  408cf8:	8ec40004 	lw	a0,4(s6)
  408cfc:	8fbc0010 	lw	gp,16(sp)
  408d00:	8ed700a8 	lw	s7,168(s6)
  408d04:	8f9983c8 	lw	t9,-31800(gp)
  408d08:	0320f809 	jalr	t9
  408d0c:	02c02021 	move	a0,s6
  408d10:	8fbc0010 	lw	gp,16(sp)
  408d14:	02e0b021 	move	s6,s7
  408d18:	16c0fff6 	bnez	s6,408cf4 <busybox_main+0x31b4>
  408d1c:	8f9983c8 	lw	t9,-31800(gp)
  408d20:	0320f809 	jalr	t9
  408d24:	03c02021 	move	a0,s8
  408d28:	8fbc0010 	lw	gp,16(sp)
  408d2c:	26310001 	addiu	s1,s1,1
  408d30:	1633ff4f 	bne	s1,s3,408a70 <busybox_main+0x2f30>
  408d34:	26100004 	addiu	s0,s0,4
  408d38:	8fbf0044 	lw	ra,68(sp)
  408d3c:	8fbe0040 	lw	s8,64(sp)
  408d40:	8fb7003c 	lw	s7,60(sp)
  408d44:	8fb60038 	lw	s6,56(sp)
  408d48:	8fb50034 	lw	s5,52(sp)
  408d4c:	8fb40030 	lw	s4,48(sp)
  408d50:	8fb3002c 	lw	s3,44(sp)
  408d54:	8fb20028 	lw	s2,40(sp)
  408d58:	8fb10024 	lw	s1,36(sp)
  408d5c:	8fb00020 	lw	s0,32(sp)
  408d60:	03e00008 	jr	ra
  408d64:	27bd0048 	addiu	sp,sp,72
  408d68:	3c1c0047 	lui	gp,0x47
  408d6c:	27bdffc8 	addiu	sp,sp,-56
  408d70:	279cd250 	addiu	gp,gp,-11696
  408d74:	8f998080 	lw	t9,-32640(gp)
  408d78:	afb0001c 	sw	s0,28(sp)
  408d7c:	24024800 	li	v0,18432
  408d80:	3c100046 	lui	s0,0x46
  408d84:	3c060045 	lui	a2,0x45
  408d88:	afb30028 	sw	s3,40(sp)
  408d8c:	afb20024 	sw	s2,36(sp)
  408d90:	afb10020 	sw	s1,32(sp)
  408d94:	afbc0010 	sw	gp,16(sp)
  408d98:	ae025b40 	sw	v0,23360(s0)
  408d9c:	24c6bf04 	addiu	a2,a2,-16636
  408da0:	afbf0034 	sw	ra,52(sp)
  408da4:	afb50030 	sw	s5,48(sp)
  408da8:	afb4002c 	sw	s4,44(sp)
  408dac:	00a08821 	move	s1,a1
  408db0:	0320f809 	jalr	t9
  408db4:	00809021 	move	s2,a0
  408db8:	3c060045 	lui	a2,0x45
  408dbc:	3c0bfe7f 	lui	t3,0xfe7f
  408dc0:	3c0affe0 	lui	t2,0xffe0
  408dc4:	3c098fff 	lui	t1,0x8fff
  408dc8:	3c08ff9f 	lui	t0,0xff9f
  408dcc:	8e035b40 	lw	v1,23360(s0)
  408dd0:	02009821 	move	s3,s0
  408dd4:	8fbc0010 	lw	gp,16(sp)
  408dd8:	24c6bf20 	addiu	a2,a2,-16608
  408ddc:	00002821 	move	a1,zero
  408de0:	3c108000 	lui	s0,0x8000
  408de4:	240f0001 	li	t7,1
  408de8:	3c070060 	lui	a3,0x60
  408dec:	3c0e7000 	lui	t6,0x7000
  408df0:	3c0d0010 	lui	t5,0x10
  408df4:	3c0c0180 	lui	t4,0x180
  408df8:	356bffff 	ori	t3,t3,0xffff
  408dfc:	254a3fff 	addiu	t2,t2,16383
  408e00:	3529ffff 	ori	t1,t1,0xffff
  408e04:	08102397 	j	408e5c <busybox_main+0x331c>
  408e08:	3508ffff 	ori	t0,t0,0xffff
  408e0c:	0282a024 	and	s4,s4,v0
  408e10:	12800011 	beqz	s4,408e58 <busybox_main+0x3318>
  408e14:	24a50001 	addiu	a1,a1,1
  408e18:	0087a824 	and	s5,a0,a3
  408e1c:	0068a024 	and	s4,v1,t0
  408e20:	0295180b 	movn	v1,s4,s5
  408e24:	0069a024 	and	s4,v1,t1
  408e28:	008ea824 	and	s5,a0,t6
  408e2c:	0295180b 	movn	v1,s4,s5
  408e30:	006aa024 	and	s4,v1,t2
  408e34:	008da824 	and	s5,a0,t5
  408e38:	0295180b 	movn	v1,s4,s5
  408e3c:	006ba024 	and	s4,v1,t3
  408e40:	008ca824 	and	s5,a0,t4
  408e44:	0295180b 	movn	v1,s4,s5
  408e48:	0067a025 	or	s4,v1,a3
  408e4c:	30950040 	andi	s5,a0,0x40
  408e50:	0295180b 	movn	v1,s4,s5
  408e54:	00641825 	or	v1,v1,a0
  408e58:	24c60004 	addiu	a2,a2,4
  408e5c:	8cc40000 	lw	a0,0(a2)
  408e60:	1490ffea 	bne	a0,s0,408e0c <busybox_main+0x32cc>
  408e64:	00afa004 	sllv	s4,t7,a1
  408e68:	3c020004 	lui	v0,0x4
  408e6c:	00621024 	and	v0,v1,v0
  408e70:	10400006 	beqz	v0,408e8c <busybox_main+0x334c>
  408e74:	ae635b40 	sw	v1,23360(s3)
  408e78:	3c02fff7 	lui	v0,0xfff7
  408e7c:	3442ffff 	ori	v0,v0,0xffff
  408e80:	00621824 	and	v1,v1,v0
  408e84:	3c020046 	lui	v0,0x46
  408e88:	ac435b40 	sw	v1,23360(v0)
  408e8c:	8e625b40 	lw	v0,23360(s3)
  408e90:	3c030080 	lui	v1,0x80
  408e94:	00431824 	and	v1,v0,v1
  408e98:	1060000a 	beqz	v1,408ec4 <busybox_main+0x3384>
  408e9c:	3c030100 	lui	v1,0x100
  408ea0:	3c038fff 	lui	v1,0x8fff
  408ea4:	3463ffff 	ori	v1,v1,0xffff
  408ea8:	00431024 	and	v0,v0,v1
  408eac:	3c033000 	lui	v1,0x3000
  408eb0:	00431025 	or	v0,v0,v1
  408eb4:	3c030046 	lui	v1,0x46
  408eb8:	ac625b40 	sw	v0,23360(v1)
  408ebc:	8e625b40 	lw	v0,23360(s3)
  408ec0:	3c030100 	lui	v1,0x100
  408ec4:	00431824 	and	v1,v0,v1
  408ec8:	50600009 	beqzl	v1,408ef0 <busybox_main+0x33b0>
  408ecc:	8e625b40 	lw	v0,23360(s3)
  408ed0:	3c038fff 	lui	v1,0x8fff
  408ed4:	3463ffff 	ori	v1,v1,0xffff
  408ed8:	00431024 	and	v0,v0,v1
  408edc:	3c032000 	lui	v1,0x2000
  408ee0:	00431025 	or	v0,v0,v1
  408ee4:	3c030046 	lui	v1,0x46
  408ee8:	ac625b40 	sw	v0,23360(v1)
  408eec:	8e625b40 	lw	v0,23360(s3)
  408ef0:	3c040060 	lui	a0,0x60
  408ef4:	00442024 	and	a0,v0,a0
  408ef8:	3c030040 	lui	v1,0x40
  408efc:	10830004 	beq	a0,v1,408f10 <busybox_main+0x33d0>
  408f00:	2403fbcf 	li	v1,-1073
  408f04:	00431024 	and	v0,v0,v1
  408f08:	3c030046 	lui	v1,0x46
  408f0c:	ac625b40 	sw	v0,23360(v1)
  408f10:	8e625b40 	lw	v0,23360(s3)
  408f14:	3c040060 	lui	a0,0x60
  408f18:	24840020 	addiu	a0,a0,32
  408f1c:	3c030040 	lui	v1,0x40
  408f20:	00442024 	and	a0,v0,a0
  408f24:	24630020 	addiu	v1,v1,32
  408f28:	14830006 	bne	a0,v1,408f44 <busybox_main+0x3404>
  408f2c:	8e705b40 	lw	s0,23360(s3)
  408f30:	2403ffef 	li	v1,-17
  408f34:	00431024 	and	v0,v0,v1
  408f38:	3c030046 	lui	v1,0x46
  408f3c:	ac625b40 	sw	v0,23360(v1)
  408f40:	8e705b40 	lw	s0,23360(s3)
  408f44:	3c140060 	lui	s4,0x60
  408f48:	02141024 	and	v0,s0,s4
  408f4c:	5440000a 	bnezl	v0,408f78 <busybox_main+0x3438>
  408f50:	8f90862c 	lw	s0,-31188(gp)
  408f54:	8f998738 	lw	t9,-30920(gp)
  408f58:	0320f809 	jalr	t9
  408f5c:	24040001 	li	a0,1
  408f60:	3c030020 	lui	v1,0x20
  408f64:	0282180a 	movz	v1,s4,v0
  408f68:	00708025 	or	s0,v1,s0
  408f6c:	8fbc0010 	lw	gp,16(sp)
  408f70:	ae705b40 	sw	s0,23360(s3)
  408f74:	8f90862c 	lw	s0,-31188(gp)
  408f78:	8e020000 	lw	v0,0(s0)
  408f7c:	02429023 	subu	s2,s2,v0
  408f80:	1e40000e 	bgtz	s2,408fbc <busybox_main+0x347c>
  408f84:	8f9980c4 	lw	t9,-32572(gp)
  408f88:	24040001 	li	a0,1
  408f8c:	0320f809 	jalr	t9
  408f90:	24050004 	li	a1,4
  408f94:	8fbc0010 	lw	gp,16(sp)
  408f98:	3c040045 	lui	a0,0x45
  408f9c:	8f998074 	lw	t9,-32652(gp)
  408fa0:	2484e924 	addiu	a0,a0,-5852
  408fa4:	0320f809 	jalr	t9
  408fa8:	0040a821 	move	s5,v0
  408fac:	24120001 	li	s2,1
  408fb0:	8fbc0010 	lw	gp,16(sp)
  408fb4:	08102408 	j	409020 <busybox_main+0x34e0>
  408fb8:	aea20000 	sw	v0,0(s5)
  408fbc:	02402021 	move	a0,s2
  408fc0:	0320f809 	jalr	t9
  408fc4:	24050004 	li	a1,4
  408fc8:	8e040000 	lw	a0,0(s0)
  408fcc:	8fbc0010 	lw	gp,16(sp)
  408fd0:	00042880 	sll	a1,a0,0x2
  408fd4:	0040a821 	move	s5,v0
  408fd8:	00401821 	move	v1,v0
  408fdc:	02258821 	addu	s1,s1,a1
  408fe0:	00001021 	move	v0,zero
  408fe4:	00022880 	sll	a1,v0,0x2
  408fe8:	02252821 	addu	a1,s1,a1
  408fec:	8ca50000 	lw	a1,0(a1)
  408ff0:	24420001 	addiu	v0,v0,1
  408ff4:	ac650000 	sw	a1,0(v1)
  408ff8:	1452fffa 	bne	v0,s2,408fe4 <busybox_main+0x34a4>
  408ffc:	24630004 	addiu	v1,v1,4
  409000:	8f82862c 	lw	v0,-31188(gp)
  409004:	02442021 	addu	a0,s2,a0
  409008:	ac440000 	sw	a0,0(v0)
  40900c:	24020001 	li	v0,1
  409010:	12420003 	beq	s2,v0,409020 <busybox_main+0x34e0>
  409014:	8e625b40 	lw	v0,23360(s3)
  409018:	34428000 	ori	v0,v0,0x8000
  40901c:	ae625b40 	sw	v0,23360(s3)
  409020:	00008821 	move	s1,zero
  409024:	00008021 	move	s0,zero
  409028:	0000a021 	move	s4,zero
  40902c:	8f998074 	lw	t9,-32652(gp)
  409030:	0320f809 	jalr	t9
  409034:	8ea40000 	lw	a0,0(s5)
  409038:	00402021 	move	a0,v0
  40903c:	0c102252 	jal	408948 <busybox_main+0x2e08>
  409040:	00402821 	move	a1,v0
  409044:	10400004 	beqz	v0,409058 <busybox_main+0x3518>
  409048:	8fbc0010 	lw	gp,16(sp)
  40904c:	ac5400a8 	sw	s4,168(v0)
  409050:	26100001 	addiu	s0,s0,1
  409054:	0040a021 	move	s4,v0
  409058:	26310001 	addiu	s1,s1,1
  40905c:	0232102a 	slt	v0,s1,s2
  409060:	1440fff2 	bnez	v0,40902c <busybox_main+0x34ec>
  409064:	26b50004 	addiu	s5,s5,4
  409068:	12000006 	beqz	s0,409084 <busybox_main+0x3544>
  40906c:	00008821 	move	s1,zero
  409070:	8f9980c4 	lw	t9,-32572(gp)
  409074:	02002021 	move	a0,s0
  409078:	0320f809 	jalr	t9
  40907c:	24050004 	li	a1,4
  409080:	00408821 	move	s1,v0
  409084:	02201821 	move	v1,s1
  409088:	08102427 	j	40909c <busybox_main+0x355c>
  40908c:	00001021 	move	v0,zero
  409090:	8e9400a8 	lw	s4,168(s4)
  409094:	24420001 	addiu	v0,v0,1
  409098:	24630004 	addiu	v1,v1,4
  40909c:	0050202a 	slt	a0,v0,s0
  4090a0:	5480fffb 	bnezl	a0,409090 <busybox_main+0x3550>
  4090a4:	ac740000 	sw	s4,0(v1)
  4090a8:	8e625b40 	lw	v0,23360(s3)
  4090ac:	3c030004 	lui	v1,0x4
  4090b0:	00621024 	and	v0,v1,v0
  4090b4:	02202021 	move	a0,s1
  4090b8:	10400009 	beqz	v0,4090e0 <busybox_main+0x35a0>
  4090bc:	02002821 	move	a1,s0
  4090c0:	0c101ff4 	jal	407fd0 <busybox_main+0x2490>
  4090c4:	00000000 	nop
  4090c8:	1a000022 	blez	s0,409154 <busybox_main+0x3614>
  4090cc:	02202021 	move	a0,s1
  4090d0:	0c10208d 	jal	408234 <busybox_main+0x26f4>
  4090d4:	02002821 	move	a1,s0
  4090d8:	08102455 	j	409154 <busybox_main+0x3614>
  4090dc:	00000000 	nop
  4090e0:	0c101fa7 	jal	407e9c <busybox_main+0x235c>
  4090e4:	24060001 	li	a2,1
  4090e8:	02202021 	move	a0,s1
  4090ec:	02002821 	move	a1,s0
  4090f0:	00003021 	move	a2,zero
  4090f4:	0c101fa7 	jal	407e9c <busybox_main+0x235c>
  4090f8:	00409021 	move	s2,v0
  4090fc:	02202021 	move	a0,s1
  409100:	02002821 	move	a1,s0
  409104:	24060001 	li	a2,1
  409108:	0c101f88 	jal	407e20 <busybox_main+0x22e0>
  40910c:	00409821 	move	s3,v0
  409110:	02028023 	subu	s0,s0,v0
  409114:	1a000007 	blez	s0,409134 <busybox_main+0x35f4>
  409118:	00408821 	move	s1,v0
  40911c:	02602021 	move	a0,s3
  409120:	0c101ff4 	jal	407fd0 <busybox_main+0x2490>
  409124:	02002821 	move	a1,s0
  409128:	02602021 	move	a0,s3
  40912c:	0c10208d 	jal	408234 <busybox_main+0x26f4>
  409130:	02002821 	move	a1,s0
  409134:	1a200007 	blez	s1,409154 <busybox_main+0x3614>
  409138:	02402021 	move	a0,s2
  40913c:	0c101ff4 	jal	407fd0 <busybox_main+0x2490>
  409140:	02202821 	move	a1,s1
  409144:	02402021 	move	a0,s2
  409148:	02202821 	move	a1,s1
  40914c:	0c102286 	jal	408a18 <busybox_main+0x2ed8>
  409150:	2e060001 	sltiu	a2,s0,1
  409154:	8fbf0034 	lw	ra,52(sp)
  409158:	3c020046 	lui	v0,0x46
  40915c:	8c425b44 	lw	v0,23364(v0)
  409160:	8fb50030 	lw	s5,48(sp)
  409164:	8fb4002c 	lw	s4,44(sp)
  409168:	8fb30028 	lw	s3,40(sp)
  40916c:	8fb20024 	lw	s2,36(sp)
  409170:	8fb10020 	lw	s1,32(sp)
  409174:	8fb0001c 	lw	s0,28(sp)
  409178:	03e00008 	jr	ra
  40917c:	27bd0038 	addiu	sp,sp,56
  409180:	3c1c0047 	lui	gp,0x47
  409184:	27bdffc8 	addiu	sp,sp,-56
  409188:	279cd250 	addiu	gp,gp,-11696
  40918c:	2402ffff 	li	v0,-1
  409190:	afa2001c 	sw	v0,28(sp)
  409194:	3c030046 	lui	v1,0x46
  409198:	8f828108 	lw	v0,-32504(gp)
  40919c:	8f998080 	lw	t9,-32640(gp)
  4091a0:	2463400c 	addiu	v1,v1,16396
  4091a4:	3c060045 	lui	a2,0x45
  4091a8:	afb2002c 	sw	s2,44(sp)
  4091ac:	afb10028 	sw	s1,40(sp)
  4091b0:	afb00024 	sw	s0,36(sp)
  4091b4:	afbc0010 	sw	gp,16(sp)
  4091b8:	afbf0034 	sw	ra,52(sp)
  4091bc:	afb30030 	sw	s3,48(sp)
  4091c0:	24c6c018 	addiu	a2,a2,-16360
  4091c4:	ac430000 	sw	v1,0(v0)
  4091c8:	27a70018 	addiu	a3,sp,24
  4091cc:	00808821 	move	s1,a0
  4091d0:	0320f809 	jalr	t9
  4091d4:	00a08021 	move	s0,a1
  4091d8:	00409021 	move	s2,v0
  4091dc:	30420001 	andi	v0,v0,0x1
  4091e0:	1040000e 	beqz	v0,40921c <busybox_main+0x36dc>
  4091e4:	8fbc0010 	lw	gp,16(sp)
  4091e8:	8f998058 	lw	t9,-32680(gp)
  4091ec:	240201ff 	li	v0,511
  4091f0:	8fa40018 	lw	a0,24(sp)
  4091f4:	afa2001c 	sw	v0,28(sp)
  4091f8:	0320f809 	jalr	t9
  4091fc:	27a5001c 	addiu	a1,sp,28
  409200:	14400006 	bnez	v0,40921c <busybox_main+0x36dc>
  409204:	8fbc0010 	lw	gp,16(sp)
  409208:	3c040045 	lui	a0,0x45
  40920c:	8fa50018 	lw	a1,24(sp)
  409210:	8f998030 	lw	t9,-32720(gp)
  409214:	0320f809 	jalr	t9
  409218:	2484c01c 	addiu	a0,a0,-16356
  40921c:	32420002 	andi	v0,s2,0x2
  409220:	24120004 	li	s2,4
  409224:	0002900a 	movz	s2,zero,v0
  409228:	8f82862c 	lw	v0,-31188(gp)
  40922c:	8c420000 	lw	v0,0(v0)
  409230:	14510004 	bne	v0,s1,409244 <busybox_main+0x3704>
  409234:	00021080 	sll	v0,v0,0x2
  409238:	8f998094 	lw	t9,-32620(gp)
  40923c:	0411f00b 	bal	40526c <bb_show_usage>
  409240:	00000000 	nop
  409244:	02028021 	addu	s0,s0,v0
  409248:	00008821 	move	s1,zero
  40924c:	24130001 	li	s3,1
  409250:	8f99810c 	lw	t9,-32500(gp)
  409254:	8e040000 	lw	a0,0(s0)
  409258:	8fa5001c 	lw	a1,28(sp)
  40925c:	0320f809 	jalr	t9
  409260:	02403021 	move	a2,s2
  409264:	26100004 	addiu	s0,s0,4
  409268:	0262880b 	movn	s1,s3,v0
  40926c:	8e020000 	lw	v0,0(s0)
  409270:	1440fff7 	bnez	v0,409250 <busybox_main+0x3710>
  409274:	8fbc0010 	lw	gp,16(sp)
  409278:	8fbf0034 	lw	ra,52(sp)
  40927c:	02201021 	move	v0,s1
  409280:	8fb30030 	lw	s3,48(sp)
  409284:	8fb2002c 	lw	s2,44(sp)
  409288:	8fb10028 	lw	s1,40(sp)
  40928c:	8fb00024 	lw	s0,36(sp)
  409290:	03e00008 	jr	ra
  409294:	27bd0038 	addiu	sp,sp,56
	...
  4092a0:	3c1c0047 	lui	gp,0x47
  4092a4:	279cd250 	addiu	gp,gp,-11696
  4092a8:	27bdffd0 	addiu	sp,sp,-48
  4092ac:	8f998110 	lw	t9,-32496(gp)
  4092b0:	afb30028 	sw	s3,40(sp)
  4092b4:	afb20024 	sw	s2,36(sp)
  4092b8:	afb10020 	sw	s1,32(sp)
  4092bc:	afb0001c 	sw	s0,28(sp)
  4092c0:	afbc0010 	sw	gp,16(sp)
  4092c4:	afbf002c 	sw	ra,44(sp)
  4092c8:	00809821 	move	s3,a0
  4092cc:	0320f809 	jalr	t9
  4092d0:	00a09021 	move	s2,a1
  4092d4:	8fbc0010 	lw	gp,16(sp)
  4092d8:	00408821 	move	s1,v0
  4092dc:	8f82862c 	lw	v0,-31188(gp)
  4092e0:	8c500000 	lw	s0,0(v0)
  4092e4:	02709823 	subu	s3,s3,s0
  4092e8:	2a620002 	slti	v0,s3,2
  4092ec:	1440003d 	bnez	v0,4093e4 <busybox_main+0x38a4>
  4092f0:	00108080 	sll	s0,s0,0x2
  4092f4:	02508021 	addu	s0,s2,s0
  4092f8:	8e020004 	lw	v0,4(s0)
  4092fc:	8f998410 	lw	t9,-31728(gp)
  409300:	3c040045 	lui	a0,0x45
  409304:	80450000 	lb	a1,0(v0)
  409308:	0320f809 	jalr	t9
  40930c:	2484c040 	addiu	a0,a0,-16320
  409310:	10400034 	beqz	v0,4093e4 <busybox_main+0x38a4>
  409314:	8fbc0010 	lw	gp,16(sp)
  409318:	80440004 	lb	a0,4(v0)
  40931c:	3c030045 	lui	v1,0x45
  409320:	00042080 	sll	a0,a0,0x2
  409324:	2463c048 	addiu	v1,v1,-16312
  409328:	00831821 	addu	v1,a0,v1
  40932c:	8c720000 	lw	s2,0(v1)
  409330:	80430000 	lb	v1,0(v0)
  409334:	24020070 	li	v0,112
  409338:	10620013 	beq	v1,v0,409388 <busybox_main+0x3848>
  40933c:	24020004 	li	v0,4
  409340:	16620029 	bne	s3,v0,4093e8 <busybox_main+0x38a8>
  409344:	8f998094 	lw	t9,-32620(gp)
  409348:	8f998114 	lw	t9,-32492(gp)
  40934c:	8e040008 	lw	a0,8(s0)
  409350:	00002821 	move	a1,zero
  409354:	0320f809 	jalr	t9
  409358:	240600ff 	li	a2,255
  40935c:	8fbc0010 	lw	gp,16(sp)
  409360:	8e04000c 	lw	a0,12(s0)
  409364:	8f998114 	lw	t9,-32492(gp)
  409368:	00409821 	move	s3,v0
  40936c:	00002821 	move	a1,zero
  409370:	0320f809 	jalr	t9
  409374:	240600ff 	li	a2,255
  409378:	00139a00 	sll	s3,s3,0x8
  40937c:	8fbc0010 	lw	gp,16(sp)
  409380:	081024e5 	j	409394 <busybox_main+0x3854>
  409384:	02623821 	addu	a3,s3,v0
  409388:	24020002 	li	v0,2
  40938c:	16620015 	bne	s3,v0,4093e4 <busybox_main+0x38a4>
  409390:	00003821 	move	a3,zero
  409394:	8e100000 	lw	s0,0(s0)
  409398:	8f9987cc 	lw	t9,-30772(gp)
  40939c:	00003021 	move	a2,zero
  4093a0:	02002021 	move	a0,s0
  4093a4:	0320f809 	jalr	t9
  4093a8:	02512825 	or	a1,s2,s1
  4093ac:	14400008 	bnez	v0,4093d0 <busybox_main+0x3890>
  4093b0:	8fbc0010 	lw	gp,16(sp)
  4093b4:	8fbf002c 	lw	ra,44(sp)
  4093b8:	8fb30028 	lw	s3,40(sp)
  4093bc:	8fb20024 	lw	s2,36(sp)
  4093c0:	8fb10020 	lw	s1,32(sp)
  4093c4:	8fb0001c 	lw	s0,28(sp)
  4093c8:	03e00008 	jr	ra
  4093cc:	27bd0030 	addiu	sp,sp,48
  4093d0:	3c040045 	lui	a0,0x45
  4093d4:	8f9980d4 	lw	t9,-32556(gp)
  4093d8:	2484f150 	addiu	a0,a0,-3760
  4093dc:	0320f809 	jalr	t9
  4093e0:	02002821 	move	a1,s0
  4093e4:	8f998094 	lw	t9,-32620(gp)
  4093e8:	0411efa0 	bal	40526c <bb_show_usage>
  4093ec:	00000000 	nop
  4093f0:	3c1c0047 	lui	gp,0x47
  4093f4:	279cd250 	addiu	gp,gp,-11696
  4093f8:	8f828108 	lw	v0,-32504(gp)
  4093fc:	3c030046 	lui	v1,0x46
  409400:	27bdfe88 	addiu	sp,sp,-376
  409404:	2463403c 	addiu	v1,v1,16444
  409408:	afb50170 	sw	s5,368(sp)
  40940c:	afb10160 	sw	s1,352(sp)
  409410:	afb0015c 	sw	s0,348(sp)
  409414:	afbc0010 	sw	gp,16(sp)
  409418:	afbf0174 	sw	ra,372(sp)
  40941c:	afb4016c 	sw	s4,364(sp)
  409420:	afb30168 	sw	s3,360(sp)
  409424:	afb20164 	sw	s2,356(sp)
  409428:	ac430000 	sw	v1,0(v0)
  40942c:	8f8280cc 	lw	v0,-32564(gp)
  409430:	3c030045 	lui	v1,0x45
  409434:	2463c060 	addiu	v1,v1,-16288
  409438:	8f998080 	lw	t9,-32640(gp)
  40943c:	3c060045 	lui	a2,0x45
  409440:	ac430000 	sw	v1,0(v0)
  409444:	24c6c068 	addiu	a2,a2,-16280
  409448:	00808821 	move	s1,a0
  40944c:	0320f809 	jalr	t9
  409450:	00a08021 	move	s0,a1
  409454:	8fbc0010 	lw	gp,16(sp)
  409458:	0040a821 	move	s5,v0
  40945c:	8f82862c 	lw	v0,-31188(gp)
  409460:	8c420000 	lw	v0,0(v0)
  409464:	24430001 	addiu	v1,v0,1
  409468:	0071182a 	slt	v1,v1,s1
  40946c:	14600004 	bnez	v1,409480 <busybox_main+0x3940>
  409470:	2623ffff 	addiu	v1,s1,-1
  409474:	8f998094 	lw	t9,-32620(gp)
  409478:	0411ef7c 	bal	40526c <bb_show_usage>
  40947c:	00000000 	nop
  409480:	00031880 	sll	v1,v1,0x2
  409484:	02031821 	addu	v1,s0,v1
  409488:	00029080 	sll	s2,v0,0x2
  40948c:	24420002 	addiu	v0,v0,2
  409490:	02129021 	addu	s2,s0,s2
  409494:	8c740000 	lw	s4,0(v1)
  409498:	1451000d 	bne	v0,s1,4094d0 <busybox_main+0x3990>
  40949c:	00008021 	move	s0,zero
  4094a0:	8f9980b4 	lw	t9,-32588(gp)
  4094a4:	02802021 	move	a0,s4
  4094a8:	0320f809 	jalr	t9
  4094ac:	27a500b8 	addiu	a1,sp,184
  4094b0:	00409821 	move	s3,v0
  4094b4:	8fbc0010 	lw	gp,16(sp)
  4094b8:	04400090 	bltz	v0,4096fc <busybox_main+0x3bbc>
  4094bc:	24100001 	li	s0,1
  4094c0:	30420002 	andi	v0,v0,0x2
  4094c4:	10400015 	beqz	v0,40951c <busybox_main+0x39dc>
  4094c8:	02808821 	move	s1,s4
  4094cc:	00008021 	move	s0,zero
  4094d0:	8f9980b8 	lw	t9,-32584(gp)
  4094d4:	0320f809 	jalr	t9
  4094d8:	8e440000 	lw	a0,0(s2)
  4094dc:	8fbc0010 	lw	gp,16(sp)
  4094e0:	02802021 	move	a0,s4
  4094e4:	8f9980c0 	lw	t9,-32576(gp)
  4094e8:	0320f809 	jalr	t9
  4094ec:	00402821 	move	a1,v0
  4094f0:	8fbc0010 	lw	gp,16(sp)
  4094f4:	00402021 	move	a0,v0
  4094f8:	8f9980b4 	lw	t9,-32588(gp)
  4094fc:	27a500b8 	addiu	a1,sp,184
  409500:	0320f809 	jalr	t9
  409504:	00408821 	move	s1,v0
  409508:	00409821 	move	s3,v0
  40950c:	04410004 	bgez	v0,409520 <busybox_main+0x39e0>
  409510:	8fbc0010 	lw	gp,16(sp)
  409514:	081025b7 	j	4096dc <busybox_main+0x3b9c>
  409518:	24100001 	li	s0,1
  40951c:	00008021 	move	s0,zero
  409520:	1260001f 	beqz	s3,4095a0 <busybox_main+0x3a60>
  409524:	32a20001 	andi	v0,s5,0x1
  409528:	1440001e 	bnez	v0,4095a4 <busybox_main+0x3a64>
  40952c:	8f998694 	lw	t9,-31084(gp)
  409530:	8f99847c 	lw	t9,-31620(gp)
  409534:	02202021 	move	a0,s1
  409538:	0320f809 	jalr	t9
  40953c:	24050002 	li	a1,2
  409540:	04410006 	bgez	v0,40955c <busybox_main+0x3a1c>
  409544:	8fbc0010 	lw	gp,16(sp)
  409548:	8f998738 	lw	t9,-30920(gp)
  40954c:	0320f809 	jalr	t9
  409550:	00002021 	move	a0,zero
  409554:	14400004 	bnez	v0,409568 <busybox_main+0x3a28>
  409558:	8fbc0010 	lw	gp,16(sp)
  40955c:	32a20002 	andi	v0,s5,0x2
  409560:	10400010 	beqz	v0,4095a4 <busybox_main+0x3a64>
  409564:	8f998694 	lw	t9,-31084(gp)
  409568:	8f8284ac 	lw	v0,-31572(gp)
  40956c:	8f998678 	lw	t9,-31112(gp)
  409570:	8c440000 	lw	a0,0(v0)
  409574:	3c050045 	lui	a1,0x45
  409578:	24a5c06c 	addiu	a1,a1,-16276
  40957c:	0320f809 	jalr	t9
  409580:	02203021 	move	a2,s1
  409584:	04400054 	bltz	v0,4096d8 <busybox_main+0x3b98>
  409588:	8fbc0010 	lw	gp,16(sp)
  40958c:	8f998118 	lw	t9,-32488(gp)
  409590:	0320f809 	jalr	t9
  409594:	00000000 	nop
  409598:	10400050 	beqz	v0,4096dc <busybox_main+0x3b9c>
  40959c:	8fbc0010 	lw	gp,16(sp)
  4095a0:	8f998694 	lw	t9,-31084(gp)
  4095a4:	8e440000 	lw	a0,0(s2)
  4095a8:	0320f809 	jalr	t9
  4095ac:	02202821 	move	a1,s1
  4095b0:	0441004a 	bgez	v0,4096dc <busybox_main+0x3b9c>
  4095b4:	8fbc0010 	lw	gp,16(sp)
  4095b8:	8f998460 	lw	t9,-31648(gp)
  4095bc:	0320f809 	jalr	t9
  4095c0:	00000000 	nop
  4095c4:	8c430000 	lw	v1,0(v0)
  4095c8:	24020012 	li	v0,18
  4095cc:	14620007 	bne	v1,v0,4095ec <busybox_main+0x3aac>
  4095d0:	8fbc0010 	lw	gp,16(sp)
  4095d4:	8f9980b4 	lw	t9,-32588(gp)
  4095d8:	8e440000 	lw	a0,0(s2)
  4095dc:	0320f809 	jalr	t9
  4095e0:	27a50018 	addiu	a1,sp,24
  4095e4:	1c400005 	bgtz	v0,4095fc <busybox_main+0x3abc>
  4095e8:	8fbc0010 	lw	gp,16(sp)
  4095ec:	3c040045 	lui	a0,0x45
  4095f0:	2484c084 	addiu	a0,a0,-16252
  4095f4:	081025a0 	j	409680 <busybox_main+0x3b40>
  4095f8:	8e450000 	lw	a1,0(s2)
  4095fc:	12600026 	beqz	s3,409698 <busybox_main+0x3b58>
  409600:	24030003 	li	v1,3
  409604:	16630009 	bne	s3,v1,40962c <busybox_main+0x3aec>
  409608:	00000000 	nop
  40960c:	10530014 	beq	v0,s3,409660 <busybox_main+0x3b20>
  409610:	3c040045 	lui	a0,0x45
  409614:	3c050045 	lui	a1,0x45
  409618:	3c060045 	lui	a2,0x45
  40961c:	2484c0d0 	addiu	a0,a0,-16176
  409620:	24a53c34 	addiu	a1,a1,15412
  409624:	08102593 	j	40964c <busybox_main+0x3b0c>
  409628:	24c6c09c 	addiu	a2,a2,-16228
  40962c:	1443000d 	bne	v0,v1,409664 <busybox_main+0x3b24>
  409630:	8f9985d0 	lw	t9,-31280(gp)
  409634:	3c040045 	lui	a0,0x45
  409638:	3c050045 	lui	a1,0x45
  40963c:	3c060045 	lui	a2,0x45
  409640:	2484c0d0 	addiu	a0,a0,-16176
  409644:	24a5c09c 	addiu	a1,a1,-16228
  409648:	24c63c34 	addiu	a2,a2,15412
  40964c:	8f9980e8 	lw	t9,-32536(gp)
  409650:	0320f809 	jalr	t9
  409654:	00000000 	nop
  409658:	081025a4 	j	409690 <busybox_main+0x3b50>
  40965c:	8fbc0010 	lw	gp,16(sp)
  409660:	8f9985d0 	lw	t9,-31280(gp)
  409664:	0320f809 	jalr	t9
  409668:	02202021 	move	a0,s1
  40966c:	0441000a 	bgez	v0,409698 <busybox_main+0x3b58>
  409670:	8fbc0010 	lw	gp,16(sp)
  409674:	3c040045 	lui	a0,0x45
  409678:	2484c0a4 	addiu	a0,a0,-16220
  40967c:	02202821 	move	a1,s1
  409680:	8f998090 	lw	t9,-32624(gp)
  409684:	0320f809 	jalr	t9
  409688:	00000000 	nop
  40968c:	8fbc0010 	lw	gp,16(sp)
  409690:	081025b7 	j	4096dc <busybox_main+0x3b9c>
  409694:	24100001 	li	s0,1
  409698:	8f9980bc 	lw	t9,-32580(gp)
  40969c:	8e440000 	lw	a0,0(s2)
  4096a0:	02202821 	move	a1,s1
  4096a4:	0320f809 	jalr	t9
  4096a8:	24060005 	li	a2,5
  4096ac:	0440000a 	bltz	v0,4096d8 <busybox_main+0x3b98>
  4096b0:	8fbc0010 	lw	gp,16(sp)
  4096b4:	8f99811c 	lw	t9,-32484(gp)
  4096b8:	8e440000 	lw	a0,0(s2)
  4096bc:	0320f809 	jalr	t9
  4096c0:	2405000c 	li	a1,12
  4096c4:	28420000 	slti	v0,v0,0
  4096c8:	24030001 	li	v1,1
  4096cc:	8fbc0010 	lw	gp,16(sp)
  4096d0:	081025b7 	j	4096dc <busybox_main+0x3b9c>
  4096d4:	0062800b 	movn	s0,v1,v0
  4096d8:	24100001 	li	s0,1
  4096dc:	12340004 	beq	s1,s4,4096f0 <busybox_main+0x3bb0>
  4096e0:	8f9983c8 	lw	t9,-31800(gp)
  4096e4:	0320f809 	jalr	t9
  4096e8:	02202021 	move	a0,s1
  4096ec:	8fbc0010 	lw	gp,16(sp)
  4096f0:	8e420004 	lw	v0,4(s2)
  4096f4:	1454ff76 	bne	v0,s4,4094d0 <busybox_main+0x3990>
  4096f8:	26520004 	addiu	s2,s2,4
  4096fc:	8fbf0174 	lw	ra,372(sp)
  409700:	02001021 	move	v0,s0
  409704:	8fb50170 	lw	s5,368(sp)
  409708:	8fb4016c 	lw	s4,364(sp)
  40970c:	8fb30168 	lw	s3,360(sp)
  409710:	8fb20164 	lw	s2,356(sp)
  409714:	8fb10160 	lw	s1,352(sp)
  409718:	8fb0015c 	lw	s0,348(sp)
  40971c:	03e00008 	jr	ra
  409720:	27bd0178 	addiu	sp,sp,376
	...
  409730:	3c1c0047 	lui	gp,0x47
  409734:	279cd250 	addiu	gp,gp,-11696
  409738:	27bdffe0 	addiu	sp,sp,-32
  40973c:	8f998120 	lw	t9,-32480(gp)
  409740:	afbc0010 	sw	gp,16(sp)
  409744:	afbf001c 	sw	ra,28(sp)
  409748:	0320f809 	jalr	t9
  40974c:	00002021 	move	a0,zero
  409750:	10400008 	beqz	v0,409774 <busybox_main+0x3c34>
  409754:	8fbc0010 	lw	gp,16(sp)
  409758:	8f998758 	lw	t9,-30888(gp)
  40975c:	0320f809 	jalr	t9
  409760:	00402021 	move	a0,v0
  409764:	8fbc0010 	lw	gp,16(sp)
  409768:	8f9980ac 	lw	t9,-32596(gp)
  40976c:	0320f809 	jalr	t9
  409770:	00002021 	move	a0,zero
  409774:	8fbf001c 	lw	ra,28(sp)
  409778:	24020001 	li	v0,1
  40977c:	03e00008 	jr	ra
  409780:	27bd0020 	addiu	sp,sp,32
	...
  409790:	3c1c0047 	lui	gp,0x47
  409794:	279cd250 	addiu	gp,gp,-11696
  409798:	8f8280cc 	lw	v0,-32564(gp)
  40979c:	3c030045 	lui	v1,0x45
  4097a0:	27bdffc8 	addiu	sp,sp,-56
  4097a4:	2463c060 	addiu	v1,v1,-16288
  4097a8:	8f998080 	lw	t9,-32640(gp)
  4097ac:	3c060045 	lui	a2,0x45
  4097b0:	afb10020 	sw	s1,32(sp)
  4097b4:	afb0001c 	sw	s0,28(sp)
  4097b8:	afbc0010 	sw	gp,16(sp)
  4097bc:	afbf0034 	sw	ra,52(sp)
  4097c0:	afb50030 	sw	s5,48(sp)
  4097c4:	afb4002c 	sw	s4,44(sp)
  4097c8:	afb30028 	sw	s3,40(sp)
  4097cc:	afb20024 	sw	s2,36(sp)
  4097d0:	24c6c100 	addiu	a2,a2,-16128
  4097d4:	ac430000 	sw	v1,0(v0)
  4097d8:	0320f809 	jalr	t9
  4097dc:	00a08021 	move	s0,a1
  4097e0:	30430001 	andi	v1,v0,0x1
  4097e4:	24110008 	li	s1,8
  4097e8:	0003880a 	movz	s1,zero,v1
  4097ec:	30440002 	andi	a0,v0,0x2
  4097f0:	36230010 	ori	v1,s1,0x10
  4097f4:	0064880b 	movn	s1,v1,a0
  4097f8:	8fbc0010 	lw	gp,16(sp)
  4097fc:	3042000c 	andi	v0,v0,0xc
  409800:	36230004 	ori	v1,s1,0x4
  409804:	0062880b 	movn	s1,v1,v0
  409808:	8f82862c 	lw	v0,-31188(gp)
  40980c:	8c420000 	lw	v0,0(v0)
  409810:	00021080 	sll	v0,v0,0x2
  409814:	02028021 	addu	s0,s0,v0
  409818:	8e020000 	lw	v0,0(s0)
  40981c:	10400026 	beqz	v0,4098b8 <busybox_main+0x3d78>
  409820:	3c140045 	lui	s4,0x45
  409824:	00009021 	move	s2,zero
  409828:	2413002e 	li	s3,46
  40982c:	24150001 	li	s5,1
  409830:	2694c108 	addiu	s4,s4,-16120
  409834:	8f9980b8 	lw	t9,-32584(gp)
  409838:	0320f809 	jalr	t9
  40983c:	8e040000 	lw	a0,0(s0)
  409840:	80430000 	lb	v1,0(v0)
  409844:	1473000f 	bne	v1,s3,409884 <busybox_main+0x3d44>
  409848:	8fbc0010 	lw	gp,16(sp)
  40984c:	80430001 	lb	v1,1(v0)
  409850:	10600007 	beqz	v1,409870 <busybox_main+0x3d30>
  409854:	8f9980e8 	lw	t9,-32536(gp)
  409858:	1473000b 	bne	v1,s3,409888 <busybox_main+0x3d48>
  40985c:	8f99811c 	lw	t9,-32484(gp)
  409860:	80420002 	lb	v0,2(v0)
  409864:	54400009 	bnezl	v0,40988c <busybox_main+0x3d4c>
  409868:	8e040000 	lw	a0,0(s0)
  40986c:	8f9980e8 	lw	t9,-32536(gp)
  409870:	0320f809 	jalr	t9
  409874:	02802021 	move	a0,s4
  409878:	24120001 	li	s2,1
  40987c:	08102628 	j	4098a0 <busybox_main+0x3d60>
  409880:	8fbc0010 	lw	gp,16(sp)
  409884:	8f99811c 	lw	t9,-32484(gp)
  409888:	8e040000 	lw	a0,0(s0)
  40988c:	0320f809 	jalr	t9
  409890:	02202821 	move	a1,s1
  409894:	28420000 	slti	v0,v0,0
  409898:	8fbc0010 	lw	gp,16(sp)
  40989c:	02a2900b 	movn	s2,s5,v0
  4098a0:	26100004 	addiu	s0,s0,4
  4098a4:	8e020000 	lw	v0,0(s0)
  4098a8:	1440ffe3 	bnez	v0,409838 <busybox_main+0x3cf8>
  4098ac:	8f9980b8 	lw	t9,-32584(gp)
  4098b0:	08102635 	j	4098d4 <busybox_main+0x3d94>
  4098b4:	8fbf0034 	lw	ra,52(sp)
  4098b8:	32310008 	andi	s1,s1,0x8
  4098bc:	16200004 	bnez	s1,4098d0 <busybox_main+0x3d90>
  4098c0:	00009021 	move	s2,zero
  4098c4:	8f998094 	lw	t9,-32620(gp)
  4098c8:	0411ee68 	bal	40526c <bb_show_usage>
  4098cc:	00000000 	nop
  4098d0:	8fbf0034 	lw	ra,52(sp)
  4098d4:	02401021 	move	v0,s2
  4098d8:	8fb50030 	lw	s5,48(sp)
  4098dc:	8fb4002c 	lw	s4,44(sp)
  4098e0:	8fb30028 	lw	s3,40(sp)
  4098e4:	8fb20024 	lw	s2,36(sp)
  4098e8:	8fb10020 	lw	s1,32(sp)
  4098ec:	8fb0001c 	lw	s0,28(sp)
  4098f0:	03e00008 	jr	ra
  4098f4:	27bd0038 	addiu	sp,sp,56
	...
  409900:	3c1c0047 	lui	gp,0x47
  409904:	279cd250 	addiu	gp,gp,-11696
  409908:	27bdffc0 	addiu	sp,sp,-64
  40990c:	8f998080 	lw	t9,-32640(gp)
  409910:	3c060045 	lui	a2,0x45
  409914:	afb40034 	sw	s4,52(sp)
  409918:	afb30030 	sw	s3,48(sp)
  40991c:	afb00024 	sw	s0,36(sp)
  409920:	afbc0010 	sw	gp,16(sp)
  409924:	afbf003c 	sw	ra,60(sp)
  409928:	afb50038 	sw	s5,56(sp)
  40992c:	afb2002c 	sw	s2,44(sp)
  409930:	afb10028 	sw	s1,40(sp)
  409934:	24c63c7c 	addiu	a2,a2,15484
  409938:	0320f809 	jalr	t9
  40993c:	00a08021 	move	s0,a1
  409940:	8fbc0010 	lw	gp,16(sp)
  409944:	00409821 	move	s3,v0
  409948:	8f82862c 	lw	v0,-31188(gp)
  40994c:	8c420000 	lw	v0,0(v0)
  409950:	00021080 	sll	v0,v0,0x2
  409954:	02028021 	addu	s0,s0,v0
  409958:	8e020000 	lw	v0,0(s0)
  40995c:	14400004 	bnez	v0,409970 <busybox_main+0x3e30>
  409960:	0000a021 	move	s4,zero
  409964:	8f998094 	lw	t9,-32620(gp)
  409968:	0411ee40 	bal	40526c <bb_show_usage>
  40996c:	00000000 	nop
  409970:	3c120045 	lui	s2,0x45
  409974:	2411002e 	li	s1,46
  409978:	265220b8 	addiu	s2,s2,8376
  40997c:	8e050000 	lw	a1,0(s0)
  409980:	80b50000 	lb	s5,0(a1)
  409984:	8f998708 	lw	t9,-30968(gp)
  409988:	00a02021 	move	a0,a1
  40998c:	0320f809 	jalr	t9
  409990:	afa50018 	sw	a1,24(sp)
  409994:	8fbc0010 	lw	gp,16(sp)
  409998:	04410007 	bgez	v0,4099b8 <busybox_main+0x3e78>
  40999c:	8fa50018 	lw	a1,24(sp)
  4099a0:	8f998090 	lw	t9,-32624(gp)
  4099a4:	0320f809 	jalr	t9
  4099a8:	02402021 	move	a0,s2
  4099ac:	24140001 	li	s4,1
  4099b0:	0810267b 	j	4099ec <busybox_main+0x3eac>
  4099b4:	8fbc0010 	lw	gp,16(sp)
  4099b8:	1260000c 	beqz	s3,4099ec <busybox_main+0x3eac>
  4099bc:	8f99877c 	lw	t9,-30852(gp)
  4099c0:	0320f809 	jalr	t9
  4099c4:	00a02021 	move	a0,a1
  4099c8:	00402821 	move	a1,v0
  4099cc:	12b1ffed 	beq	s5,s1,409984 <busybox_main+0x3e44>
  4099d0:	8fbc0010 	lw	gp,16(sp)
  4099d4:	80420000 	lb	v0,0(v0)
  4099d8:	1451ffeb 	bne	v0,s1,409988 <busybox_main+0x3e48>
  4099dc:	8f998708 	lw	t9,-30968(gp)
  4099e0:	80a20001 	lb	v0,1(a1)
  4099e4:	5440ffe9 	bnezl	v0,40998c <busybox_main+0x3e4c>
  4099e8:	00a02021 	move	a0,a1
  4099ec:	26100004 	addiu	s0,s0,4
  4099f0:	8e020000 	lw	v0,0(s0)
  4099f4:	5440ffe2 	bnezl	v0,409980 <busybox_main+0x3e40>
  4099f8:	8e050000 	lw	a1,0(s0)
  4099fc:	8fbf003c 	lw	ra,60(sp)
  409a00:	02801021 	move	v0,s4
  409a04:	8fb50038 	lw	s5,56(sp)
  409a08:	8fb40034 	lw	s4,52(sp)
  409a0c:	8fb30030 	lw	s3,48(sp)
  409a10:	8fb2002c 	lw	s2,44(sp)
  409a14:	8fb10028 	lw	s1,40(sp)
  409a18:	8fb00024 	lw	s0,36(sp)
  409a1c:	03e00008 	jr	ra
  409a20:	27bd0040 	addiu	sp,sp,64
	...
  409a30:	3c1c0047 	lui	gp,0x47
  409a34:	27bdffd0 	addiu	sp,sp,-48
  409a38:	279cd250 	addiu	gp,gp,-11696
  409a3c:	28840002 	slti	a0,a0,2
  409a40:	afbf002c 	sw	ra,44(sp)
  409a44:	afb20028 	sw	s2,40(sp)
  409a48:	afb10024 	sw	s1,36(sp)
  409a4c:	afb00020 	sw	s0,32(sp)
  409a50:	10800003 	beqz	a0,409a60 <busybox_main+0x3f20>
  409a54:	afbc0018 	sw	gp,24(sp)
  409a58:	081026ae 	j	409ab8 <busybox_main+0x3f78>
  409a5c:	8f998094 	lw	t9,-32620(gp)
  409a60:	3c120046 	lui	s2,0x46
  409a64:	00a08821 	move	s1,a1
  409a68:	00008021 	move	s0,zero
  409a6c:	2652406c 	addiu	s2,s2,16492
  409a70:	8e240004 	lw	a0,4(s1)
  409a74:	8f998124 	lw	t9,-32476(gp)
  409a78:	00103827 	nor	a3,zero,s0
  409a7c:	afb20010 	sw	s2,16(sp)
  409a80:	2405000a 	li	a1,10
  409a84:	0320f809 	jalr	t9
  409a88:	00003021 	move	a2,zero
  409a8c:	26310004 	addiu	s1,s1,4
  409a90:	02028021 	addu	s0,s0,v0
  409a94:	8e220004 	lw	v0,4(s1)
  409a98:	1440fff5 	bnez	v0,409a70 <busybox_main+0x3f30>
  409a9c:	8fbc0018 	lw	gp,24(sp)
  409aa0:	8f998734 	lw	t9,-30924(gp)
  409aa4:	0320f809 	jalr	t9
  409aa8:	02002021 	move	a0,s0
  409aac:	10400004 	beqz	v0,409ac0 <busybox_main+0x3f80>
  409ab0:	8fbc0018 	lw	gp,24(sp)
  409ab4:	8f998128 	lw	t9,-32472(gp)
  409ab8:	0320f809 	jalr	t9
  409abc:	00000000 	nop
  409ac0:	8fbf002c 	lw	ra,44(sp)
  409ac4:	8fb20028 	lw	s2,40(sp)
  409ac8:	8fb10024 	lw	s1,36(sp)
  409acc:	8fb00020 	lw	s0,32(sp)
  409ad0:	03e00008 	jr	ra
  409ad4:	27bd0030 	addiu	sp,sp,48
	...
  409ae0:	3c1c0047 	lui	gp,0x47
  409ae4:	279cd250 	addiu	gp,gp,-11696
  409ae8:	27bdffe0 	addiu	sp,sp,-32
  409aec:	8f99812c 	lw	t9,-32468(gp)
  409af0:	afbf001c 	sw	ra,28(sp)
  409af4:	afbc0010 	sw	gp,16(sp)
  409af8:	0320f809 	jalr	t9
  409afc:	2484ffff 	addiu	a0,a0,-1
  409b00:	8fbc0010 	lw	gp,16(sp)
  409b04:	8f9985c8 	lw	t9,-31288(gp)
  409b08:	0320f809 	jalr	t9
  409b0c:	00000000 	nop
  409b10:	8fbf001c 	lw	ra,28(sp)
  409b14:	00001021 	move	v0,zero
  409b18:	03e00008 	jr	ra
  409b1c:	27bd0020 	addiu	sp,sp,32
  409b20:	3c1c0047 	lui	gp,0x47
  409b24:	27bdffd8 	addiu	sp,sp,-40
  409b28:	279cd250 	addiu	gp,gp,-11696
  409b2c:	afb10020 	sw	s1,32(sp)
  409b30:	afbf0024 	sw	ra,36(sp)
  409b34:	afb0001c 	sw	s0,28(sp)
  409b38:	afbc0010 	sw	gp,16(sp)
  409b3c:	1480000f 	bnez	a0,409b7c <busybox_main+0x403c>
  409b40:	00808821 	move	s1,a0
  409b44:	3c020046 	lui	v0,0x46
  409b48:	ac405b50 	sw	zero,23376(v0)
  409b4c:	081026e7 	j	409b9c <busybox_main+0x405c>
  409b50:	00001021 	move	v0,zero
  409b54:	0320f809 	jalr	t9
  409b58:	02202021 	move	a0,s1
  409b5c:	14400005 	bnez	v0,409b74 <busybox_main+0x4034>
  409b60:	8fbc0010 	lw	gp,16(sp)
  409b64:	3c020046 	lui	v0,0x46
  409b68:	ac505b50 	sw	s0,23376(v0)
  409b6c:	081026e7 	j	409b9c <busybox_main+0x405c>
  409b70:	86020004 	lh	v0,4(s0)
  409b74:	081026e1 	j	409b84 <busybox_main+0x4044>
  409b78:	26100008 	addiu	s0,s0,8
  409b7c:	3c100046 	lui	s0,0x46
  409b80:	26104094 	addiu	s0,s0,16532
  409b84:	8e050000 	lw	a1,0(s0)
  409b88:	14a0fff2 	bnez	a1,409b54 <busybox_main+0x4014>
  409b8c:	8f9984f0 	lw	t9,-31504(gp)
  409b90:	3c020046 	lui	v0,0x46
  409b94:	ac405b50 	sw	zero,23376(v0)
  409b98:	24020027 	li	v0,39
  409b9c:	8fbf0024 	lw	ra,36(sp)
  409ba0:	8fb10020 	lw	s1,32(sp)
  409ba4:	8fb0001c 	lw	s0,28(sp)
  409ba8:	03e00008 	jr	ra
  409bac:	27bd0028 	addiu	sp,sp,40
  409bb0:	3c1c0047 	lui	gp,0x47
  409bb4:	279cd250 	addiu	gp,gp,-11696
  409bb8:	27bdffd0 	addiu	sp,sp,-48
  409bbc:	8f998460 	lw	t9,-31648(gp)
  409bc0:	afbf002c 	sw	ra,44(sp)
  409bc4:	afb20028 	sw	s2,40(sp)
  409bc8:	afb10024 	sw	s1,36(sp)
  409bcc:	afb00020 	sw	s0,32(sp)
  409bd0:	afbc0010 	sw	gp,16(sp)
  409bd4:	0320f809 	jalr	t9
  409bd8:	00808021 	move	s0,a0
  409bdc:	8fbc0010 	lw	gp,16(sp)
  409be0:	ac400000 	sw	zero,0(v0)
  409be4:	8f9986a8 	lw	t9,-31064(gp)
  409be8:	02002021 	move	a0,s0
  409bec:	27a50018 	addiu	a1,sp,24
  409bf0:	2406000a 	li	a2,10
  409bf4:	0320f809 	jalr	t9
  409bf8:	00408821 	move	s1,v0
  409bfc:	00409021 	move	s2,v0
  409c00:	8e220000 	lw	v0,0(s1)
  409c04:	10400004 	beqz	v0,409c18 <busybox_main+0x40d8>
  409c08:	8fbc0010 	lw	gp,16(sp)
  409c0c:	3c040045 	lui	a0,0x45
  409c10:	0810270e 	j	409c38 <busybox_main+0x40f8>
  409c14:	2484c124 	addiu	a0,a0,-16092
  409c18:	8f998018 	lw	t9,-32744(gp)
  409c1c:	0320f809 	jalr	t9
  409c20:	8fa40018 	lw	a0,24(sp)
  409c24:	80420000 	lb	v0,0(v0)
  409c28:	10400006 	beqz	v0,409c44 <busybox_main+0x4104>
  409c2c:	8fbc0010 	lw	gp,16(sp)
  409c30:	3c040045 	lui	a0,0x45
  409c34:	2484c138 	addiu	a0,a0,-16072
  409c38:	8f998030 	lw	t9,-32720(gp)
  409c3c:	0320f809 	jalr	t9
  409c40:	02002821 	move	a1,s0
  409c44:	8fbf002c 	lw	ra,44(sp)
  409c48:	02401021 	move	v0,s2
  409c4c:	8fb10024 	lw	s1,36(sp)
  409c50:	8fb20028 	lw	s2,40(sp)
  409c54:	8fb00020 	lw	s0,32(sp)
  409c58:	03e00008 	jr	ra
  409c5c:	27bd0030 	addiu	sp,sp,48
  409c60:	3c1c0047 	lui	gp,0x47
  409c64:	279cd250 	addiu	gp,gp,-11696
  409c68:	27bdfe98 	addiu	sp,sp,-360
  409c6c:	8f9987f0 	lw	t9,-30736(gp)
  409c70:	afb10160 	sw	s1,352(sp)
  409c74:	afb0015c 	sw	s0,348(sp)
  409c78:	afbc0010 	sw	gp,16(sp)
  409c7c:	afbf0164 	sw	ra,356(sp)
  409c80:	00a08821 	move	s1,a1
  409c84:	0320f809 	jalr	t9
  409c88:	27a500b8 	addiu	a1,sp,184
  409c8c:	00008021 	move	s0,zero
  409c90:	1440000a 	bnez	v0,409cbc <busybox_main+0x417c>
  409c94:	8fbc0010 	lw	gp,16(sp)
  409c98:	8f9987f0 	lw	t9,-30736(gp)
  409c9c:	02202021 	move	a0,s1
  409ca0:	0320f809 	jalr	t9
  409ca4:	27a50018 	addiu	a1,sp,24
  409ca8:	14400005 	bnez	v0,409cc0 <busybox_main+0x4180>
  409cac:	8fbf0164 	lw	ra,356(sp)
  409cb0:	8fa20060 	lw	v0,96(sp)
  409cb4:	8fb00100 	lw	s0,256(sp)
  409cb8:	0050802a 	slt	s0,v0,s0
  409cbc:	8fbf0164 	lw	ra,356(sp)
  409cc0:	02001021 	move	v0,s0
  409cc4:	8fb10160 	lw	s1,352(sp)
  409cc8:	8fb0015c 	lw	s0,348(sp)
  409ccc:	03e00008 	jr	ra
  409cd0:	27bd0168 	addiu	sp,sp,360
  409cd4:	3c1c0047 	lui	gp,0x47
  409cd8:	279cd250 	addiu	gp,gp,-11696
  409cdc:	27bdfe98 	addiu	sp,sp,-360
  409ce0:	8f9987f0 	lw	t9,-30736(gp)
  409ce4:	afb10160 	sw	s1,352(sp)
  409ce8:	afb0015c 	sw	s0,348(sp)
  409cec:	afbc0010 	sw	gp,16(sp)
  409cf0:	afbf0164 	sw	ra,356(sp)
  409cf4:	00a08821 	move	s1,a1
  409cf8:	0320f809 	jalr	t9
  409cfc:	27a500b8 	addiu	a1,sp,184
  409d00:	00008021 	move	s0,zero
  409d04:	1440000a 	bnez	v0,409d30 <busybox_main+0x41f0>
  409d08:	8fbc0010 	lw	gp,16(sp)
  409d0c:	8f9987f0 	lw	t9,-30736(gp)
  409d10:	02202021 	move	a0,s1
  409d14:	0320f809 	jalr	t9
  409d18:	27a50018 	addiu	a1,sp,24
  409d1c:	14400005 	bnez	v0,409d34 <busybox_main+0x41f4>
  409d20:	8fbf0164 	lw	ra,356(sp)
  409d24:	8fa20060 	lw	v0,96(sp)
  409d28:	8fb00100 	lw	s0,256(sp)
  409d2c:	0202802a 	slt	s0,s0,v0
  409d30:	8fbf0164 	lw	ra,356(sp)
  409d34:	02001021 	move	v0,s0
  409d38:	8fb10160 	lw	s1,352(sp)
  409d3c:	8fb0015c 	lw	s0,348(sp)
  409d40:	03e00008 	jr	ra
  409d44:	27bd0168 	addiu	sp,sp,360
  409d48:	3c1c0047 	lui	gp,0x47
  409d4c:	279cd250 	addiu	gp,gp,-11696
  409d50:	27bdfe98 	addiu	sp,sp,-360
  409d54:	8f9987f0 	lw	t9,-30736(gp)
  409d58:	afb10160 	sw	s1,352(sp)
  409d5c:	afb0015c 	sw	s0,348(sp)
  409d60:	afbc0010 	sw	gp,16(sp)
  409d64:	afbf0164 	sw	ra,356(sp)
  409d68:	00a08821 	move	s1,a1
  409d6c:	0320f809 	jalr	t9
  409d70:	27a500b8 	addiu	a1,sp,184
  409d74:	00008021 	move	s0,zero
  409d78:	14400018 	bnez	v0,409ddc <busybox_main+0x429c>
  409d7c:	8fbc0010 	lw	gp,16(sp)
  409d80:	8f9987f0 	lw	t9,-30736(gp)
  409d84:	02202021 	move	a0,s1
  409d88:	0320f809 	jalr	t9
  409d8c:	27a50018 	addiu	a1,sp,24
  409d90:	14400013 	bnez	v0,409de0 <busybox_main+0x42a0>
  409d94:	8fbf0164 	lw	ra,356(sp)
  409d98:	8fa20018 	lw	v0,24(sp)
  409d9c:	8fa300b8 	lw	v1,184(sp)
  409da0:	5462000f 	bnel	v1,v0,409de0 <busybox_main+0x42a0>
  409da4:	00008021 	move	s0,zero
  409da8:	8fa2001c 	lw	v0,28(sp)
  409dac:	8fa300bc 	lw	v1,188(sp)
  409db0:	5462000a 	bnel	v1,v0,409ddc <busybox_main+0x429c>
  409db4:	00008021 	move	s0,zero
  409db8:	8fa20028 	lw	v0,40(sp)
  409dbc:	8fb000c8 	lw	s0,200(sp)
  409dc0:	8fa300cc 	lw	v1,204(sp)
  409dc4:	02028026 	xor	s0,s0,v0
  409dc8:	8fa2002c 	lw	v0,44(sp)
  409dcc:	00621026 	xor	v0,v1,v0
  409dd0:	02028025 	or	s0,s0,v0
  409dd4:	08102778 	j	409de0 <busybox_main+0x42a0>
  409dd8:	2e100001 	sltiu	s0,s0,1
  409ddc:	8fbf0164 	lw	ra,356(sp)
  409de0:	02001021 	move	v0,s0
  409de4:	8fb10160 	lw	s1,352(sp)
  409de8:	8fb0015c 	lw	s0,348(sp)
  409dec:	03e00008 	jr	ra
  409df0:	27bd0168 	addiu	sp,sp,360
  409df4:	27bdffd0 	addiu	sp,sp,-48
  409df8:	afb20028 	sw	s2,40(sp)
  409dfc:	3c120046 	lui	s2,0x46
  409e00:	afb10024 	sw	s1,36(sp)
  409e04:	8e515b54 	lw	s1,23380(s2)
  409e08:	3c1c0047 	lui	gp,0x47
  409e0c:	8e240004 	lw	a0,4(s1)
  409e10:	279cd250 	addiu	gp,gp,-11696
  409e14:	afb00020 	sw	s0,32(sp)
  409e18:	afbc0010 	sw	gp,16(sp)
  409e1c:	afbf002c 	sw	ra,44(sp)
  409e20:	0c1026c8 	jal	409b20 <busybox_main+0x3fe0>
  409e24:	8e300000 	lw	s0,0(s1)
  409e28:	8e250008 	lw	a1,8(s1)
  409e2c:	3c020046 	lui	v0,0x46
  409e30:	26230008 	addiu	v1,s1,8
  409e34:	8fbc0010 	lw	gp,16(sp)
  409e38:	8c425b50 	lw	v0,23376(v0)
  409e3c:	14a00005 	bnez	a1,409e54 <busybox_main+0x4314>
  409e40:	ae435b54 	sw	v1,23380(s2)
  409e44:	3c050045 	lui	a1,0x45
  409e48:	8c440000 	lw	a0,0(v0)
  409e4c:	0c101324 	jal	404c90 <_ftext>
  409e50:	24a5c148 	addiu	a1,a1,-16056
  409e54:	94420004 	lhu	v0,4(v0)
  409e58:	2442ffef 	addiu	v0,v0,-17
  409e5c:	3042ffff 	andi	v0,v0,0xffff
  409e60:	2c430011 	sltiu	v1,v0,17
  409e64:	5060006b 	beqzl	v1,40a014 <busybox_main+0x44d4>
  409e68:	24020001 	li	v0,1
  409e6c:	3c030045 	lui	v1,0x45
  409e70:	00021080 	sll	v0,v0,0x2
  409e74:	2463c230 	addiu	v1,v1,-15824
  409e78:	00621021 	addu	v0,v1,v0
  409e7c:	8c420000 	lw	v0,0(v0)
  409e80:	00400008 	jr	v0
  409e84:	00000000 	nop
  409e88:	8f9984f0 	lw	t9,-31504(gp)
  409e8c:	0320f809 	jalr	t9
  409e90:	02002021 	move	a0,s0
  409e94:	08102805 	j	40a014 <busybox_main+0x44d4>
  409e98:	2c420001 	sltiu	v0,v0,1
  409e9c:	8f9984f0 	lw	t9,-31504(gp)
  409ea0:	0320f809 	jalr	t9
  409ea4:	02002021 	move	a0,s0
  409ea8:	08102805 	j	40a014 <busybox_main+0x44d4>
  409eac:	0002102b 	sltu	v0,zero,v0
  409eb0:	8f9984f0 	lw	t9,-31504(gp)
  409eb4:	0320f809 	jalr	t9
  409eb8:	02002021 	move	a0,s0
  409ebc:	08102805 	j	40a014 <busybox_main+0x44d4>
  409ec0:	000217c2 	srl	v0,v0,0x1f
  409ec4:	8f9984f0 	lw	t9,-31504(gp)
  409ec8:	0320f809 	jalr	t9
  409ecc:	02002021 	move	a0,s0
  409ed0:	08102805 	j	40a014 <busybox_main+0x44d4>
  409ed4:	0002102a 	slt	v0,zero,v0
  409ed8:	02002021 	move	a0,s0
  409edc:	0c1026ec 	jal	409bb0 <busybox_main+0x4070>
  409ee0:	afa50018 	sw	a1,24(sp)
  409ee4:	8fa50018 	lw	a1,24(sp)
  409ee8:	00408021 	move	s0,v0
  409eec:	0c1026ec 	jal	409bb0 <busybox_main+0x4070>
  409ef0:	00a02021 	move	a0,a1
  409ef4:	02021026 	xor	v0,s0,v0
  409ef8:	08102805 	j	40a014 <busybox_main+0x44d4>
  409efc:	2c420001 	sltiu	v0,v0,1
  409f00:	02002021 	move	a0,s0
  409f04:	0c1026ec 	jal	409bb0 <busybox_main+0x4070>
  409f08:	afa50018 	sw	a1,24(sp)
  409f0c:	8fa50018 	lw	a1,24(sp)
  409f10:	00408021 	move	s0,v0
  409f14:	0c1026ec 	jal	409bb0 <busybox_main+0x4070>
  409f18:	00a02021 	move	a0,a1
  409f1c:	02021026 	xor	v0,s0,v0
  409f20:	08102805 	j	40a014 <busybox_main+0x44d4>
  409f24:	0002102b 	sltu	v0,zero,v0
  409f28:	02002021 	move	a0,s0
  409f2c:	0c1026ec 	jal	409bb0 <busybox_main+0x4070>
  409f30:	afa50018 	sw	a1,24(sp)
  409f34:	8fa50018 	lw	a1,24(sp)
  409f38:	00408021 	move	s0,v0
  409f3c:	0c1026ec 	jal	409bb0 <busybox_main+0x4070>
  409f40:	00a02021 	move	a0,a1
  409f44:	081027e4 	j	409f90 <busybox_main+0x4450>
  409f48:	0202102a 	slt	v0,s0,v0
  409f4c:	02002021 	move	a0,s0
  409f50:	0c1026ec 	jal	409bb0 <busybox_main+0x4070>
  409f54:	afa50018 	sw	a1,24(sp)
  409f58:	8fa50018 	lw	a1,24(sp)
  409f5c:	00408021 	move	s0,v0
  409f60:	0c1026ec 	jal	409bb0 <busybox_main+0x4070>
  409f64:	00a02021 	move	a0,a1
  409f68:	08102805 	j	40a014 <busybox_main+0x44d4>
  409f6c:	0050102a 	slt	v0,v0,s0
  409f70:	02002021 	move	a0,s0
  409f74:	0c1026ec 	jal	409bb0 <busybox_main+0x4070>
  409f78:	afa50018 	sw	a1,24(sp)
  409f7c:	8fa50018 	lw	a1,24(sp)
  409f80:	00408021 	move	s0,v0
  409f84:	0c1026ec 	jal	409bb0 <busybox_main+0x4070>
  409f88:	00a02021 	move	a0,a1
  409f8c:	0050102a 	slt	v0,v0,s0
  409f90:	08102805 	j	40a014 <busybox_main+0x44d4>
  409f94:	38420001 	xori	v0,v0,0x1
  409f98:	02002021 	move	a0,s0
  409f9c:	0c1026ec 	jal	409bb0 <busybox_main+0x4070>
  409fa0:	afa50018 	sw	a1,24(sp)
  409fa4:	8fa50018 	lw	a1,24(sp)
  409fa8:	00408021 	move	s0,v0
  409fac:	0c1026ec 	jal	409bb0 <busybox_main+0x4070>
  409fb0:	00a02021 	move	a0,a1
  409fb4:	08102805 	j	40a014 <busybox_main+0x44d4>
  409fb8:	0202102a 	slt	v0,s0,v0
  409fbc:	02002021 	move	a0,s0
  409fc0:	8fbf002c 	lw	ra,44(sp)
  409fc4:	8fb20028 	lw	s2,40(sp)
  409fc8:	8fb10024 	lw	s1,36(sp)
  409fcc:	8fb00020 	lw	s0,32(sp)
  409fd0:	08102718 	j	409c60 <busybox_main+0x4120>
  409fd4:	27bd0030 	addiu	sp,sp,48
  409fd8:	02002021 	move	a0,s0
  409fdc:	8fbf002c 	lw	ra,44(sp)
  409fe0:	8fb20028 	lw	s2,40(sp)
  409fe4:	8fb10024 	lw	s1,36(sp)
  409fe8:	8fb00020 	lw	s0,32(sp)
  409fec:	08102735 	j	409cd4 <busybox_main+0x4194>
  409ff0:	27bd0030 	addiu	sp,sp,48
  409ff4:	02002021 	move	a0,s0
  409ff8:	8fbf002c 	lw	ra,44(sp)
  409ffc:	8fb20028 	lw	s2,40(sp)
  40a000:	8fb10024 	lw	s1,36(sp)
  40a004:	8fb00020 	lw	s0,32(sp)
  40a008:	08102752 	j	409d48 <busybox_main+0x4208>
  40a00c:	27bd0030 	addiu	sp,sp,48
  40a010:	24020001 	li	v0,1
  40a014:	8fbf002c 	lw	ra,44(sp)
  40a018:	8fb20028 	lw	s2,40(sp)
  40a01c:	8fb10024 	lw	s1,36(sp)
  40a020:	8fb00020 	lw	s0,32(sp)
  40a024:	03e00008 	jr	ra
  40a028:	27bd0030 	addiu	sp,sp,48
  40a02c:	3c1c0047 	lui	gp,0x47
  40a030:	279cd250 	addiu	gp,gp,-11696
  40a034:	27bdff28 	addiu	sp,sp,-216
  40a038:	8f9987f8 	lw	t9,-30728(gp)
  40a03c:	afbf00d4 	sw	ra,212(sp)
  40a040:	afb100c8 	sw	s1,200(sp)
  40a044:	afb000c4 	sw	s0,196(sp)
  40a048:	afbc0010 	sw	gp,16(sp)
  40a04c:	afa400b8 	sw	a0,184(sp)
  40a050:	afb300d0 	sw	s3,208(sp)
  40a054:	afb200cc 	sw	s2,204(sp)
  40a058:	0320f809 	jalr	t9
  40a05c:	00a08021 	move	s0,a1
  40a060:	8fbc0010 	lw	gp,16(sp)
  40a064:	8fa400b8 	lw	a0,184(sp)
  40a068:	8f9987f0 	lw	t9,-30736(gp)
  40a06c:	27a50018 	addiu	a1,sp,24
  40a070:	0320f809 	jalr	t9
  40a074:	00408821 	move	s1,v0
  40a078:	8fbc0010 	lw	gp,16(sp)
  40a07c:	0440003e 	bltz	v0,40a178 <busybox_main+0x4638>
  40a080:	2403ffff 	li	v1,-1
  40a084:	16200009 	bnez	s1,40a0ac <busybox_main+0x456c>
  40a088:	8fa20038 	lw	v0,56(sp)
  40a08c:	24020001 	li	v0,1
  40a090:	16020039 	bne	s0,v0,40a178 <busybox_main+0x4638>
  40a094:	00001821 	move	v1,zero
  40a098:	8fa20030 	lw	v0,48(sp)
  40a09c:	30420049 	andi	v0,v0,0x49
  40a0a0:	14400035 	bnez	v0,40a178 <busybox_main+0x4638>
  40a0a4:	02201821 	move	v1,s1
  40a0a8:	8fa20038 	lw	v0,56(sp)
  40a0ac:	14510003 	bne	v0,s1,40a0bc <busybox_main+0x457c>
  40a0b0:	8f998824 	lw	t9,-30684(gp)
  40a0b4:	08102859 	j	40a164 <busybox_main+0x4624>
  40a0b8:	00108180 	sll	s0,s0,0x6
  40a0bc:	0320f809 	jalr	t9
  40a0c0:	8fb3003c 	lw	s3,60(sp)
  40a0c4:	12620026 	beq	s3,v0,40a160 <busybox_main+0x4620>
  40a0c8:	8fbc0010 	lw	gp,16(sp)
  40a0cc:	8f9987a8 	lw	t9,-30808(gp)
  40a0d0:	0320f809 	jalr	t9
  40a0d4:	00000000 	nop
  40a0d8:	12620021 	beq	s3,v0,40a160 <busybox_main+0x4620>
  40a0dc:	8fbc0010 	lw	gp,16(sp)
  40a0e0:	3c120046 	lui	s2,0x46
  40a0e4:	8e425b58 	lw	v0,23384(s2)
  40a0e8:	14400011 	bnez	v0,40a130 <busybox_main+0x45f0>
  40a0ec:	3c110046 	lui	s1,0x46
  40a0f0:	8f998508 	lw	t9,-31480(gp)
  40a0f4:	00002021 	move	a0,zero
  40a0f8:	0320f809 	jalr	t9
  40a0fc:	00002821 	move	a1,zero
  40a100:	8fbc0010 	lw	gp,16(sp)
  40a104:	8e245b5c 	lw	a0,23388(s1)
  40a108:	8f998034 	lw	t9,-32716(gp)
  40a10c:	00022880 	sll	a1,v0,0x2
  40a110:	0320f809 	jalr	t9
  40a114:	ae425b58 	sw	v0,23384(s2)
  40a118:	8fbc0010 	lw	gp,16(sp)
  40a11c:	8e445b58 	lw	a0,23384(s2)
  40a120:	8f998508 	lw	t9,-31480(gp)
  40a124:	ae225b5c 	sw	v0,23388(s1)
  40a128:	0320f809 	jalr	t9
  40a12c:	00402821 	move	a1,v0
  40a130:	8e445b58 	lw	a0,23384(s2)
  40a134:	8e235b5c 	lw	v1,23388(s1)
  40a138:	08102853 	j	40a14c <busybox_main+0x460c>
  40a13c:	00001021 	move	v0,zero
  40a140:	8c65fffc 	lw	a1,-4(v1)
  40a144:	12650006 	beq	s3,a1,40a160 <busybox_main+0x4620>
  40a148:	24420001 	addiu	v0,v0,1
  40a14c:	0044282a 	slt	a1,v0,a0
  40a150:	54a0fffb 	bnezl	a1,40a140 <busybox_main+0x4600>
  40a154:	24630004 	addiu	v1,v1,4
  40a158:	0810285a 	j	40a168 <busybox_main+0x4628>
  40a15c:	8fa30030 	lw	v1,48(sp)
  40a160:	001080c0 	sll	s0,s0,0x3
  40a164:	8fa30030 	lw	v1,48(sp)
  40a168:	2402ffff 	li	v0,-1
  40a16c:	02038024 	and	s0,s0,v1
  40a170:	00001821 	move	v1,zero
  40a174:	0050180a 	movz	v1,v0,s0
  40a178:	8fbf00d4 	lw	ra,212(sp)
  40a17c:	00601021 	move	v0,v1
  40a180:	8fb300d0 	lw	s3,208(sp)
  40a184:	8fb200cc 	lw	s2,204(sp)
  40a188:	8fb100c8 	lw	s1,200(sp)
  40a18c:	8fb000c4 	lw	s0,196(sp)
  40a190:	03e00008 	jr	ra
  40a194:	27bd00d8 	addiu	sp,sp,216
  40a198:	3c1c0047 	lui	gp,0x47
  40a19c:	27bdff38 	addiu	sp,sp,-200
  40a1a0:	279cd250 	addiu	gp,gp,-11696
  40a1a4:	24020022 	li	v0,34
  40a1a8:	afb100bc 	sw	s1,188(sp)
  40a1ac:	afb000b8 	sw	s0,184(sp)
  40a1b0:	afbf00c4 	sw	ra,196(sp)
  40a1b4:	afb200c0 	sw	s2,192(sp)
  40a1b8:	afbc0010 	sw	gp,16(sp)
  40a1bc:	00808821 	move	s1,a0
  40a1c0:	1482000a 	bne	a0,v0,40a1ec <busybox_main+0x46ac>
  40a1c4:	3c100046 	lui	s0,0x46
  40a1c8:	8e025b54 	lw	v0,23380(s0)
  40a1cc:	8c440004 	lw	a0,4(v0)
  40a1d0:	24430004 	addiu	v1,v0,4
  40a1d4:	0c1026c8 	jal	409b20 <busybox_main+0x3fe0>
  40a1d8:	ae035b54 	sw	v1,23380(s0)
  40a1dc:	0c102866 	jal	40a198 <busybox_main+0x4658>
  40a1e0:	00402021 	move	a0,v0
  40a1e4:	081028b0 	j	40a2c0 <busybox_main+0x4780>
  40a1e8:	00000000 	nop
  40a1ec:	10800027 	beqz	a0,40a28c <busybox_main+0x474c>
  40a1f0:	3c050045 	lui	a1,0x45
  40a1f4:	24020025 	li	v0,37
  40a1f8:	14820016 	bne	a0,v0,40a254 <busybox_main+0x4714>
  40a1fc:	3c120046 	lui	s2,0x46
  40a200:	8e025b54 	lw	v0,23380(s0)
  40a204:	8c440004 	lw	a0,4(v0)
  40a208:	24430004 	addiu	v1,v0,4
  40a20c:	0c1026c8 	jal	409b20 <busybox_main+0x3fe0>
  40a210:	ae035b54 	sw	v1,23380(s0)
  40a214:	0c102947 	jal	40a51c <busybox_main+0x49dc>
  40a218:	00402021 	move	a0,v0
  40a21c:	00409021 	move	s2,v0
  40a220:	8e025b54 	lw	v0,23380(s0)
  40a224:	8c440004 	lw	a0,4(v0)
  40a228:	24430004 	addiu	v1,v0,4
  40a22c:	0c1026c8 	jal	409b20 <busybox_main+0x3fe0>
  40a230:	ae035b54 	sw	v1,23380(s0)
  40a234:	24030026 	li	v1,38
  40a238:	1043008d 	beq	v0,v1,40a470 <busybox_main+0x4930>
  40a23c:	8fbf00c4 	lw	ra,196(sp)
  40a240:	3c050045 	lui	a1,0x45
  40a244:	00002021 	move	a0,zero
  40a248:	24a5c15c 	addiu	a1,a1,-16036
  40a24c:	0c101324 	jal	404c90 <_ftext>
  40a250:	00000000 	nop
  40a254:	8e425b50 	lw	v0,23376(s2)
  40a258:	50400078 	beqzl	v0,40a43c <busybox_main+0x48fc>
  40a25c:	8e105b54 	lw	s0,23380(s0)
  40a260:	84430006 	lh	v1,6(v0)
  40a264:	54600075 	bnezl	v1,40a43c <busybox_main+0x48fc>
  40a268:	8e105b54 	lw	s0,23380(s0)
  40a26c:	8e035b54 	lw	v1,23380(s0)
  40a270:	24640004 	addiu	a0,v1,4
  40a274:	ae045b54 	sw	a0,23380(s0)
  40a278:	8c700004 	lw	s0,4(v1)
  40a27c:	56000005 	bnezl	s0,40a294 <busybox_main+0x4754>
  40a280:	24020016 	li	v0,22
  40a284:	8c440000 	lw	a0,0(v0)
  40a288:	3c050045 	lui	a1,0x45
  40a28c:	08102893 	j	40a24c <busybox_main+0x470c>
  40a290:	24a5c148 	addiu	a1,a1,-16056
  40a294:	12220007 	beq	s1,v0,40a2b4 <busybox_main+0x4774>
  40a298:	24020017 	li	v0,23
  40a29c:	1222000a 	beq	s1,v0,40a2c8 <busybox_main+0x4788>
  40a2a0:	2402000d 	li	v0,13
  40a2a4:	16220012 	bne	s1,v0,40a2f0 <busybox_main+0x47b0>
  40a2a8:	2402000b 	li	v0,11
  40a2ac:	081028b4 	j	40a2d0 <busybox_main+0x4790>
  40a2b0:	00000000 	nop
  40a2b4:	8f998038 	lw	t9,-32712(gp)
  40a2b8:	0320f809 	jalr	t9
  40a2bc:	02002021 	move	a0,s0
  40a2c0:	0810291b 	j	40a46c <busybox_main+0x492c>
  40a2c4:	2c520001 	sltiu	s2,v0,1
  40a2c8:	08102923 	j	40a48c <busybox_main+0x494c>
  40a2cc:	02002021 	move	a0,s0
  40a2d0:	0c1026ec 	jal	409bb0 <busybox_main+0x4070>
  40a2d4:	02002021 	move	a0,s0
  40a2d8:	8fbc0010 	lw	gp,16(sp)
  40a2dc:	8f998738 	lw	t9,-30920(gp)
  40a2e0:	0320f809 	jalr	t9
  40a2e4:	00402021 	move	a0,v0
  40a2e8:	0810291b 	j	40a46c <busybox_main+0x492c>
  40a2ec:	00409021 	move	s2,v0
  40a2f0:	02002021 	move	a0,s0
  40a2f4:	16220008 	bne	s1,v0,40a318 <busybox_main+0x47d8>
  40a2f8:	27a50018 	addiu	a1,sp,24
  40a2fc:	8f998574 	lw	t9,-31372(gp)
  40a300:	0320f809 	jalr	t9
  40a304:	00009021 	move	s2,zero
  40a308:	14400058 	bnez	v0,40a46c <busybox_main+0x492c>
  40a30c:	3403a000 	li	v1,0xa000
  40a310:	08102902 	j	40a408 <busybox_main+0x48c8>
  40a314:	8fb20030 	lw	s2,48(sp)
  40a318:	8f9987f0 	lw	t9,-30736(gp)
  40a31c:	0320f809 	jalr	t9
  40a320:	00009021 	move	s2,zero
  40a324:	14400051 	bnez	v0,40a46c <busybox_main+0x492c>
  40a328:	8fbc0010 	lw	gp,16(sp)
  40a32c:	2631ffff 	addiu	s1,s1,-1
  40a330:	2e220015 	sltiu	v0,s1,21
  40a334:	5040004d 	beqzl	v0,40a46c <busybox_main+0x492c>
  40a338:	24120001 	li	s2,1
  40a33c:	3c020045 	lui	v0,0x45
  40a340:	2442c274 	addiu	v0,v0,-15756
  40a344:	00118880 	sll	s1,s1,0x2
  40a348:	00518821 	addu	s1,v0,s1
  40a34c:	8e220000 	lw	v0,0(s1)
  40a350:	00400008 	jr	v0
  40a354:	00000000 	nop
  40a358:	08102901 	j	40a404 <busybox_main+0x48c4>
  40a35c:	34038000 	li	v1,0x8000
  40a360:	02002021 	move	a0,s0
  40a364:	081028dd 	j	40a374 <busybox_main+0x4834>
  40a368:	24050004 	li	a1,4
  40a36c:	02002021 	move	a0,s0
  40a370:	24050002 	li	a1,2
  40a374:	0c10280b 	jal	40a02c <busybox_main+0x44ec>
  40a378:	00000000 	nop
  40a37c:	081028b0 	j	40a2c0 <busybox_main+0x4780>
  40a380:	00000000 	nop
  40a384:	02002021 	move	a0,s0
  40a388:	081028dd 	j	40a374 <busybox_main+0x4834>
  40a38c:	24050001 	li	a1,1
  40a390:	08102901 	j	40a404 <busybox_main+0x48c4>
  40a394:	24032000 	li	v1,8192
  40a398:	08102901 	j	40a404 <busybox_main+0x48c4>
  40a39c:	24036000 	li	v1,24576
  40a3a0:	08102901 	j	40a404 <busybox_main+0x48c4>
  40a3a4:	24031000 	li	v1,4096
  40a3a8:	08102901 	j	40a404 <busybox_main+0x48c4>
  40a3ac:	3403c000 	li	v1,0xc000
  40a3b0:	08102909 	j	40a424 <busybox_main+0x48e4>
  40a3b4:	24020200 	li	v0,512
  40a3b8:	8fa30050 	lw	v1,80(sp)
  40a3bc:	8fb20054 	lw	s2,84(sp)
  40a3c0:	000317c3 	sra	v0,v1,0x1f
  40a3c4:	00529023 	subu	s2,v0,s2
  40a3c8:	0052902b 	sltu	s2,v0,s2
  40a3cc:	00431023 	subu	v0,v0,v1
  40a3d0:	00529023 	subu	s2,v0,s2
  40a3d4:	0810291b 	j	40a46c <busybox_main+0x492c>
  40a3d8:	001297c2 	srl	s2,s2,0x1f
  40a3dc:	8fb20038 	lw	s2,56(sp)
  40a3e0:	081028fc 	j	40a3f0 <busybox_main+0x48b0>
  40a3e4:	8f9987f8 	lw	t9,-30728(gp)
  40a3e8:	8fb2003c 	lw	s2,60(sp)
  40a3ec:	8f9987a8 	lw	t9,-30808(gp)
  40a3f0:	0320f809 	jalr	t9
  40a3f4:	00000000 	nop
  40a3f8:	08102904 	j	40a410 <busybox_main+0x48d0>
  40a3fc:	02429026 	xor	s2,s2,v0
  40a400:	24034000 	li	v1,16384
  40a404:	8fb20030 	lw	s2,48(sp)
  40a408:	3252f000 	andi	s2,s2,0xf000
  40a40c:	02439026 	xor	s2,s2,v1
  40a410:	0810291b 	j	40a46c <busybox_main+0x492c>
  40a414:	2e520001 	sltiu	s2,s2,1
  40a418:	08102909 	j	40a424 <busybox_main+0x48e4>
  40a41c:	24020800 	li	v0,2048
  40a420:	24020400 	li	v0,1024
  40a424:	8fb20030 	lw	s2,48(sp)
  40a428:	00529024 	and	s2,v0,s2
  40a42c:	0810291b 	j	40a46c <busybox_main+0x492c>
  40a430:	0012902b 	sltu	s2,zero,s2
  40a434:	0810291b 	j	40a46c <busybox_main+0x492c>
  40a438:	24120001 	li	s2,1
  40a43c:	0c1026c8 	jal	409b20 <busybox_main+0x3fe0>
  40a440:	8e040004 	lw	a0,4(s0)
  40a444:	8e425b50 	lw	v0,23376(s2)
  40a448:	1040000f 	beqz	v0,40a488 <busybox_main+0x4948>
  40a44c:	8fbc0010 	lw	gp,16(sp)
  40a450:	84430006 	lh	v1,6(v0)
  40a454:	24020001 	li	v0,1
  40a458:	5462000c 	bnel	v1,v0,40a48c <busybox_main+0x494c>
  40a45c:	8e040000 	lw	a0,0(s0)
  40a460:	0c10277d 	jal	409df4 <busybox_main+0x42b4>
  40a464:	00000000 	nop
  40a468:	00409021 	move	s2,v0
  40a46c:	8fbf00c4 	lw	ra,196(sp)
  40a470:	02401021 	move	v0,s2
  40a474:	8fb100bc 	lw	s1,188(sp)
  40a478:	8fb200c0 	lw	s2,192(sp)
  40a47c:	8fb000b8 	lw	s0,184(sp)
  40a480:	03e00008 	jr	ra
  40a484:	27bd00c8 	addiu	sp,sp,200
  40a488:	8e040000 	lw	a0,0(s0)
  40a48c:	8f998038 	lw	t9,-32712(gp)
  40a490:	0320f809 	jalr	t9
  40a494:	00000000 	nop
  40a498:	0810291b 	j	40a46c <busybox_main+0x492c>
  40a49c:	0002902b 	sltu	s2,zero,v0
  40a4a0:	27bdffd8 	addiu	sp,sp,-40
  40a4a4:	afb1001c 	sw	s1,28(sp)
  40a4a8:	3c110046 	lui	s1,0x46
  40a4ac:	afbf0024 	sw	ra,36(sp)
  40a4b0:	afb20020 	sw	s2,32(sp)
  40a4b4:	0c102866 	jal	40a198 <busybox_main+0x4658>
  40a4b8:	afb00018 	sw	s0,24(sp)
  40a4bc:	8e305b54 	lw	s0,23380(s1)
  40a4c0:	00409021 	move	s2,v0
  40a4c4:	8e040004 	lw	a0,4(s0)
  40a4c8:	26020004 	addiu	v0,s0,4
  40a4cc:	0c1026c8 	jal	409b20 <busybox_main+0x3fe0>
  40a4d0:	ae225b54 	sw	v0,23380(s1)
  40a4d4:	24030023 	li	v1,35
  40a4d8:	54430009 	bnel	v0,v1,40a500 <busybox_main+0x49c0>
  40a4dc:	ae305b54 	sw	s0,23380(s1)
  40a4e0:	8e040008 	lw	a0,8(s0)
  40a4e4:	26020008 	addiu	v0,s0,8
  40a4e8:	0c1026c8 	jal	409b20 <busybox_main+0x3fe0>
  40a4ec:	ae225b54 	sw	v0,23380(s1)
  40a4f0:	00402021 	move	a0,v0
  40a4f4:	0c102928 	jal	40a4a0 <busybox_main+0x4960>
  40a4f8:	0012902b 	sltu	s2,zero,s2
  40a4fc:	0002900a 	movz	s2,zero,v0
  40a500:	8fbf0024 	lw	ra,36(sp)
  40a504:	02401021 	move	v0,s2
  40a508:	8fb1001c 	lw	s1,28(sp)
  40a50c:	8fb20020 	lw	s2,32(sp)
  40a510:	8fb00018 	lw	s0,24(sp)
  40a514:	03e00008 	jr	ra
  40a518:	27bd0028 	addiu	sp,sp,40
  40a51c:	27bdffd8 	addiu	sp,sp,-40
  40a520:	afb20020 	sw	s2,32(sp)
  40a524:	3c120046 	lui	s2,0x46
  40a528:	afbf0024 	sw	ra,36(sp)
  40a52c:	afb1001c 	sw	s1,28(sp)
  40a530:	0c102928 	jal	40a4a0 <busybox_main+0x4960>
  40a534:	afb00018 	sw	s0,24(sp)
  40a538:	8e515b54 	lw	s1,23380(s2)
  40a53c:	00408021 	move	s0,v0
  40a540:	8e240004 	lw	a0,4(s1)
  40a544:	26220004 	addiu	v0,s1,4
  40a548:	0c1026c8 	jal	409b20 <busybox_main+0x3fe0>
  40a54c:	ae425b54 	sw	v0,23380(s2)
  40a550:	24030024 	li	v1,36
  40a554:	5443000a 	bnel	v0,v1,40a580 <busybox_main+0x4a40>
  40a558:	ae515b54 	sw	s1,23380(s2)
  40a55c:	8e240008 	lw	a0,8(s1)
  40a560:	26220008 	addiu	v0,s1,8
  40a564:	0c1026c8 	jal	409b20 <busybox_main+0x3fe0>
  40a568:	ae425b54 	sw	v0,23380(s2)
  40a56c:	0c102947 	jal	40a51c <busybox_main+0x49dc>
  40a570:	00402021 	move	a0,v0
  40a574:	0010182b 	sltu	v1,zero,s0
  40a578:	24100001 	li	s0,1
  40a57c:	0062800a 	movz	s0,v1,v0
  40a580:	8fbf0024 	lw	ra,36(sp)
  40a584:	02001021 	move	v0,s0
  40a588:	8fb20020 	lw	s2,32(sp)
  40a58c:	8fb1001c 	lw	s1,28(sp)
  40a590:	8fb00018 	lw	s0,24(sp)
  40a594:	03e00008 	jr	ra
  40a598:	27bd0028 	addiu	sp,sp,40
  40a59c:	3c1c0047 	lui	gp,0x47
  40a5a0:	279cd250 	addiu	gp,gp,-11696
  40a5a4:	8f828024 	lw	v0,-32732(gp)
  40a5a8:	27bdffd8 	addiu	sp,sp,-40
  40a5ac:	8f9984f0 	lw	t9,-31504(gp)
  40a5b0:	afb1001c 	sw	s1,28(sp)
  40a5b4:	afb00018 	sw	s0,24(sp)
  40a5b8:	00808821 	move	s1,a0
  40a5bc:	00a08021 	move	s0,a1
  40a5c0:	8c440000 	lw	a0,0(v0)
  40a5c4:	3c050045 	lui	a1,0x45
  40a5c8:	afbc0010 	sw	gp,16(sp)
  40a5cc:	afbf0024 	sw	ra,36(sp)
  40a5d0:	afb20020 	sw	s2,32(sp)
  40a5d4:	0320f809 	jalr	t9
  40a5d8:	24a58088 	addiu	a1,a1,-32632
  40a5dc:	14400010 	bnez	v0,40a620 <busybox_main+0x4ae0>
  40a5e0:	8fbc0010 	lw	gp,16(sp)
  40a5e4:	2631ffff 	addiu	s1,s1,-1
  40a5e8:	00119080 	sll	s2,s1,0x2
  40a5ec:	02129021 	addu	s2,s0,s2
  40a5f0:	8f9984f0 	lw	t9,-31504(gp)
  40a5f4:	8e440000 	lw	a0,0(s2)
  40a5f8:	3c050045 	lui	a1,0x45
  40a5fc:	0320f809 	jalr	t9
  40a600:	24a5c17c 	addiu	a1,a1,-16004
  40a604:	10400005 	beqz	v0,40a61c <busybox_main+0x4adc>
  40a608:	8fbc0010 	lw	gp,16(sp)
  40a60c:	3c040045 	lui	a0,0x45
  40a610:	8f998030 	lw	t9,-32720(gp)
  40a614:	0320f809 	jalr	t9
  40a618:	2484c174 	addiu	a0,a0,-16012
  40a61c:	ae400000 	sw	zero,0(s2)
  40a620:	2631ffff 	addiu	s1,s1,-1
  40a624:	2e220005 	sltiu	v0,s1,5
  40a628:	1040004c 	beqz	v0,40a75c <busybox_main+0x4c1c>
  40a62c:	3c120046 	lui	s2,0x46
  40a630:	3c020045 	lui	v0,0x45
  40a634:	2442c2c8 	addiu	v0,v0,-15672
  40a638:	00118880 	sll	s1,s1,0x2
  40a63c:	00518821 	addu	s1,v0,s1
  40a640:	8e220000 	lw	v0,0(s1)
  40a644:	00400008 	jr	v0
  40a648:	00000000 	nop
  40a64c:	08102998 	j	40a660 <busybox_main+0x4b20>
  40a650:	24040001 	li	a0,1
  40a654:	8e020004 	lw	v0,4(s0)
  40a658:	80440000 	lb	a0,0(v0)
  40a65c:	2c840001 	sltiu	a0,a0,1
  40a660:	8f998458 	lw	t9,-31656(gp)
  40a664:	0320f809 	jalr	t9
  40a668:	00000000 	nop
  40a66c:	8e020004 	lw	v0,4(s0)
  40a670:	24030021 	li	v1,33
  40a674:	80440000 	lb	a0,0(v0)
  40a678:	54830039 	bnel	a0,v1,40a760 <busybox_main+0x4c20>
  40a67c:	8e040004 	lw	a0,4(s0)
  40a680:	80420001 	lb	v0,1(v0)
  40a684:	54400036 	bnezl	v0,40a760 <busybox_main+0x4c20>
  40a688:	8e040004 	lw	a0,4(s0)
  40a68c:	8e020008 	lw	v0,8(s0)
  40a690:	80440000 	lb	a0,0(v0)
  40a694:	08102998 	j	40a660 <busybox_main+0x4b20>
  40a698:	0004202b 	sltu	a0,zero,a0
  40a69c:	8e020004 	lw	v0,4(s0)
  40a6a0:	24030021 	li	v1,33
  40a6a4:	80440000 	lb	a0,0(v0)
  40a6a8:	14830004 	bne	a0,v1,40a6bc <busybox_main+0x4b7c>
  40a6ac:	00000000 	nop
  40a6b0:	80420001 	lb	v0,1(v0)
  40a6b4:	5040002a 	beqzl	v0,40a760 <busybox_main+0x4c20>
  40a6b8:	8e040004 	lw	a0,4(s0)
  40a6bc:	0c1026c8 	jal	409b20 <busybox_main+0x3fe0>
  40a6c0:	8e040008 	lw	a0,8(s0)
  40a6c4:	3c020046 	lui	v0,0x46
  40a6c8:	8c425b50 	lw	v0,23376(v0)
  40a6cc:	50400024 	beqzl	v0,40a760 <busybox_main+0x4c20>
  40a6d0:	8e040004 	lw	a0,4(s0)
  40a6d4:	84430006 	lh	v1,6(v0)
  40a6d8:	24020001 	li	v0,1
  40a6dc:	54620020 	bnel	v1,v0,40a760 <busybox_main+0x4c20>
  40a6e0:	8e040004 	lw	a0,4(s0)
  40a6e4:	26100004 	addiu	s0,s0,4
  40a6e8:	0c10277d 	jal	409df4 <busybox_main+0x42b4>
  40a6ec:	ae505b54 	sw	s0,23380(s2)
  40a6f0:	2c440001 	sltiu	a0,v0,1
  40a6f4:	08102998 	j	40a660 <busybox_main+0x4b20>
  40a6f8:	8fbc0010 	lw	gp,16(sp)
  40a6fc:	8e020004 	lw	v0,4(s0)
  40a700:	24030021 	li	v1,33
  40a704:	80440000 	lb	a0,0(v0)
  40a708:	54830015 	bnel	a0,v1,40a760 <busybox_main+0x4c20>
  40a70c:	8e040004 	lw	a0,4(s0)
  40a710:	80420001 	lb	v0,1(v0)
  40a714:	54400012 	bnezl	v0,40a760 <busybox_main+0x4c20>
  40a718:	8e040004 	lw	a0,4(s0)
  40a71c:	0c1026c8 	jal	409b20 <busybox_main+0x3fe0>
  40a720:	8e04000c 	lw	a0,12(s0)
  40a724:	3c020046 	lui	v0,0x46
  40a728:	8c425b50 	lw	v0,23376(v0)
  40a72c:	5040000c 	beqzl	v0,40a760 <busybox_main+0x4c20>
  40a730:	8e040004 	lw	a0,4(s0)
  40a734:	84430006 	lh	v1,6(v0)
  40a738:	24020001 	li	v0,1
  40a73c:	54620008 	bnel	v1,v0,40a760 <busybox_main+0x4c20>
  40a740:	8e040004 	lw	a0,4(s0)
  40a744:	26100008 	addiu	s0,s0,8
  40a748:	0c10277d 	jal	409df4 <busybox_main+0x42b4>
  40a74c:	ae505b54 	sw	s0,23380(s2)
  40a750:	0002202b 	sltu	a0,zero,v0
  40a754:	08102998 	j	40a660 <busybox_main+0x4b20>
  40a758:	8fbc0010 	lw	gp,16(sp)
  40a75c:	8e040004 	lw	a0,4(s0)
  40a760:	26020004 	addiu	v0,s0,4
  40a764:	0c1026c8 	jal	409b20 <busybox_main+0x3fe0>
  40a768:	ae425b54 	sw	v0,23380(s2)
  40a76c:	0c102947 	jal	40a51c <busybox_main+0x49dc>
  40a770:	00402021 	move	a0,v0
  40a774:	8e435b54 	lw	v1,23380(s2)
  40a778:	8c640000 	lw	a0,0(v1)
  40a77c:	10800009 	beqz	a0,40a7a4 <busybox_main+0x4c64>
  40a780:	3c040046 	lui	a0,0x46
  40a784:	24650004 	addiu	a1,v1,4
  40a788:	ac855b54 	sw	a1,23380(a0)
  40a78c:	8c640004 	lw	a0,4(v1)
  40a790:	10800005 	beqz	a0,40a7a8 <busybox_main+0x4c68>
  40a794:	8fbf0024 	lw	ra,36(sp)
  40a798:	3c050045 	lui	a1,0x45
  40a79c:	0c101324 	jal	404c90 <_ftext>
  40a7a0:	24a5c180 	addiu	a1,a1,-16000
  40a7a4:	8fbf0024 	lw	ra,36(sp)
  40a7a8:	2c420001 	sltiu	v0,v0,1
  40a7ac:	8fb20020 	lw	s2,32(sp)
  40a7b0:	8fb1001c 	lw	s1,28(sp)
  40a7b4:	8fb00018 	lw	s0,24(sp)
  40a7b8:	03e00008 	jr	ra
  40a7bc:	27bd0028 	addiu	sp,sp,40
  40a7c0:	081029f5 	j	40a7d4 <busybox_main+0x4c94>
  40a7c4:	00001021 	move	v0,zero
  40a7c8:	00a21023 	subu	v0,a1,v0
  40a7cc:	00431021 	addu	v0,v0,v1
  40a7d0:	24840001 	addiu	a0,a0,1
  40a7d4:	80830000 	lb	v1,0(a0)
  40a7d8:	1460fffb 	bnez	v1,40a7c8 <busybox_main+0x4c88>
  40a7dc:	00022980 	sll	a1,v0,0x6
  40a7e0:	03e00008 	jr	ra
  40a7e4:	00000000 	nop
  40a7e8:	3c050046 	lui	a1,0x46
  40a7ec:	24a35cd0 	addiu	v1,a1,23760
  40a7f0:	8c820000 	lw	v0,0(a0)
  40a7f4:	84630018 	lh	v1,24(v1)
  40a7f8:	240a0020 	li	t2,32
  40a7fc:	24090009 	li	t1,9
  40a800:	2408005c 	li	t0,92
  40a804:	08102a04 	j	40a810 <busybox_main+0x4cd0>
  40a808:	2407000a 	li	a3,10
  40a80c:	24420001 	addiu	v0,v0,1
  40a810:	80460000 	lb	a2,0(v0)
  40a814:	50cafffe 	beql	a2,t2,40a810 <busybox_main+0x4cd0>
  40a818:	24420001 	addiu	v0,v0,1
  40a81c:	50c9fffc 	beql	a2,t1,40a810 <busybox_main+0x4cd0>
  40a820:	24420001 	addiu	v0,v0,1
  40a824:	54c80005 	bnel	a2,t0,40a83c <busybox_main+0x4cfc>
  40a828:	24a55cd0 	addiu	a1,a1,23760
  40a82c:	80460001 	lb	a2,1(v0)
  40a830:	50c70004 	beql	a2,a3,40a844 <busybox_main+0x4d04>
  40a834:	24630001 	addiu	v1,v1,1
  40a838:	24a55cd0 	addiu	a1,a1,23760
  40a83c:	08102a17 	j	40a85c <busybox_main+0x4d1c>
  40a840:	a4a30018 	sh	v1,24(a1)
  40a844:	00031c00 	sll	v1,v1,0x10
  40a848:	00031c03 	sra	v1,v1,0x10
  40a84c:	1460ffef 	bnez	v1,40a80c <busybox_main+0x4ccc>
  40a850:	24420001 	addiu	v0,v0,1
  40a854:	24a55cd0 	addiu	a1,a1,23760
  40a858:	a4a00018 	sh	zero,24(a1)
  40a85c:	03e00008 	jr	ra
  40a860:	ac820000 	sw	v0,0(a0)
  40a864:	8c820000 	lw	v0,0(a0)
  40a868:	8c830000 	lw	v1,0(a0)
  40a86c:	80650000 	lb	a1,0(v1)
  40a870:	24630001 	addiu	v1,v1,1
  40a874:	14a0fffc 	bnez	a1,40a868 <busybox_main+0x4d28>
  40a878:	ac830000 	sw	v1,0(a0)
  40a87c:	03e00008 	jr	ra
  40a880:	00000000 	nop
  40a884:	3c1c0047 	lui	gp,0x47
  40a888:	279cd250 	addiu	gp,gp,-11696
  40a88c:	8f8287bc 	lw	v0,-30788(gp)
  40a890:	8c430000 	lw	v1,0(v0)
  40a894:	00041040 	sll	v0,a0,0x1
  40a898:	00621021 	addu	v0,v1,v0
  40a89c:	94430000 	lhu	v1,0(v0)
  40a8a0:	30630800 	andi	v1,v1,0x800
  40a8a4:	14600003 	bnez	v1,40a8b4 <busybox_main+0x4d74>
  40a8a8:	24020001 	li	v0,1
  40a8ac:	3882005f 	xori	v0,a0,0x5f
  40a8b0:	2c420001 	sltiu	v0,v0,1
  40a8b4:	03e00008 	jr	ra
  40a8b8:	00000000 	nop
  40a8bc:	8c820000 	lw	v0,0(a0)
  40a8c0:	10400009 	beqz	v0,40a8e8 <busybox_main+0x4da8>
  40a8c4:	24031300 	li	v1,4864
  40a8c8:	8c450000 	lw	a1,0(v0)
  40a8cc:	30a5ff00 	andi	a1,a1,0xff00
  40a8d0:	54a30006 	bnel	a1,v1,40a8ec <busybox_main+0x4dac>
  40a8d4:	ac800000 	sw	zero,0(a0)
  40a8d8:	8c43000c 	lw	v1,12(v0)
  40a8dc:	ac830000 	sw	v1,0(a0)
  40a8e0:	03e00008 	jr	ra
  40a8e4:	8c420008 	lw	v0,8(v0)
  40a8e8:	ac800000 	sw	zero,0(a0)
  40a8ec:	03e00008 	jr	ra
  40a8f0:	00000000 	nop
  40a8f4:	27bdffd0 	addiu	sp,sp,-48
  40a8f8:	3c1c0047 	lui	gp,0x47
  40a8fc:	afb10020 	sw	s1,32(sp)
  40a900:	279cd250 	addiu	gp,gp,-11696
  40a904:	3c110046 	lui	s1,0x46
  40a908:	3c03aaaa 	lui	v1,0xaaaa
  40a90c:	afb20024 	sw	s2,36(sp)
  40a910:	afb0001c 	sw	s0,28(sp)
  40a914:	afbf002c 	sw	ra,44(sp)
  40a918:	afb30028 	sw	s3,40(sp)
  40a91c:	afbc0010 	sw	gp,16(sp)
  40a920:	00808021 	move	s0,a0
  40a924:	8e225d40 	lw	v0,23872(s1)
  40a928:	00009021 	move	s2,zero
  40a92c:	08102a59 	j	40a964 <busybox_main+0x4e24>
  40a930:	3463aaab 	ori	v1,v1,0xaaab
  40a934:	24440010 	addiu	a0,v0,16
  40a938:	00a42023 	subu	a0,a1,a0
  40a93c:	000420c3 	sra	a0,a0,0x3
  40a940:	70832802 	mul	a1,a0,v1
  40a944:	00b02021 	addu	a0,a1,s0
  40a948:	8c450000 	lw	a1,0(v0)
  40a94c:	00a4202a 	slt	a0,a1,a0
  40a950:	14800003 	bnez	a0,40a960 <busybox_main+0x4e20>
  40a954:	00409021 	move	s2,v0
  40a958:	08102a6c 	j	40a9b0 <busybox_main+0x4e70>
  40a95c:	ae225d40 	sw	v0,23872(s1)
  40a960:	8c42000c 	lw	v0,12(v0)
  40a964:	5440fff3 	bnezl	v0,40a934 <busybox_main+0x4df4>
  40a968:	8c450004 	lw	a1,4(v0)
  40a96c:	2a020040 	slti	v0,s0,64
  40a970:	24130040 	li	s3,64
  40a974:	0202980a 	movz	s3,s0,v0
  40a978:	24040018 	li	a0,24
  40a97c:	72642002 	mul	a0,s3,a0
  40a980:	8f998020 	lw	t9,-32736(gp)
  40a984:	ae205d40 	sw	zero,23872(s1)
  40a988:	0320f809 	jalr	t9
  40a98c:	24840010 	addiu	a0,a0,16
  40a990:	24430010 	addiu	v1,v0,16
  40a994:	ae225d40 	sw	v0,23872(s1)
  40a998:	ac530000 	sw	s3,0(v0)
  40a99c:	ac430004 	sw	v1,4(v0)
  40a9a0:	ac520008 	sw	s2,8(v0)
  40a9a4:	12400002 	beqz	s2,40a9b0 <busybox_main+0x4e70>
  40a9a8:	ac40000c 	sw	zero,12(v0)
  40a9ac:	ae42000c 	sw	v0,12(s2)
  40a9b0:	24040018 	li	a0,24
  40a9b4:	8e235d40 	lw	v1,23872(s1)
  40a9b8:	72042802 	mul	a1,s0,a0
  40a9bc:	8c620004 	lw	v0,4(v1)
  40a9c0:	00a28021 	addu	s0,a1,v0
  40a9c4:	ac700004 	sw	s0,4(v1)
  40a9c8:	08102a76 	j	40a9d8 <busybox_main+0x4e98>
  40a9cc:	00401821 	move	v1,v0
  40a9d0:	ac600010 	sw	zero,16(v1)
  40a9d4:	24630018 	addiu	v1,v1,24
  40a9d8:	0070202b 	sltu	a0,v1,s0
  40a9dc:	5480fffc 	bnezl	a0,40a9d0 <busybox_main+0x4e90>
  40a9e0:	a4600000 	sh	zero,0(v1)
  40a9e4:	8fbf002c 	lw	ra,44(sp)
  40a9e8:	8fb30028 	lw	s3,40(sp)
  40a9ec:	8fb20024 	lw	s2,36(sp)
  40a9f0:	8fb10020 	lw	s1,32(sp)
  40a9f4:	8fb0001c 	lw	s0,28(sp)
  40a9f8:	03e00008 	jr	ra
  40a9fc:	27bd0030 	addiu	sp,sp,48
  40aa00:	94830000 	lhu	v1,0(a0)
  40aa04:	3c1c0047 	lui	gp,0x47
  40aa08:	27bdffd8 	addiu	sp,sp,-40
  40aa0c:	279cd250 	addiu	gp,gp,-11696
  40aa10:	30631000 	andi	v1,v1,0x1000
  40aa14:	afbf0024 	sw	ra,36(sp)
  40aa18:	afbc0010 	sw	gp,16(sp)
  40aa1c:	14600006 	bnez	v1,40aa38 <busybox_main+0x4ef8>
  40aa20:	00801021 	move	v0,a0
  40aa24:	8c840010 	lw	a0,16(a0)
  40aa28:	8f9983c8 	lw	t9,-31800(gp)
  40aa2c:	0320f809 	jalr	t9
  40aa30:	afa20018 	sw	v0,24(sp)
  40aa34:	8fa20018 	lw	v0,24(sp)
  40aa38:	94430000 	lhu	v1,0(v0)
  40aa3c:	8fbf0024 	lw	ra,36(sp)
  40aa40:	30636c02 	andi	v1,v1,0x6c02
  40aa44:	34634000 	ori	v1,v1,0x4000
  40aa48:	a4430000 	sh	v1,0(v0)
  40aa4c:	ac400010 	sw	zero,16(v0)
  40aa50:	03e00008 	jr	ra
  40aa54:	27bd0028 	addiu	sp,sp,40
  40aa58:	3c1c0047 	lui	gp,0x47
  40aa5c:	27bdffd0 	addiu	sp,sp,-48
  40aa60:	279cd250 	addiu	gp,gp,-11696
  40aa64:	afb20020 	sw	s2,32(sp)
  40aa68:	afb00018 	sw	s0,24(sp)
  40aa6c:	afbf002c 	sw	ra,44(sp)
  40aa70:	afb40028 	sw	s4,40(sp)
  40aa74:	afb30024 	sw	s3,36(sp)
  40aa78:	afb1001c 	sw	s1,28(sp)
  40aa7c:	afbc0010 	sw	gp,16(sp)
  40aa80:	00808021 	move	s0,a0
  40aa84:	08102ab6 	j	40aad8 <busybox_main+0x4f98>
  40aa88:	00009021 	move	s2,zero
  40aa8c:	00129880 	sll	s3,s2,0x2
  40aa90:	00531021 	addu	v0,v0,s3
  40aa94:	08102ab0 	j	40aac0 <busybox_main+0x4f80>
  40aa98:	8c510000 	lw	s1,0(v0)
  40aa9c:	8e240010 	lw	a0,16(s1)
  40aaa0:	0320f809 	jalr	t9
  40aaa4:	8e340018 	lw	s4,24(s1)
  40aaa8:	8fbc0010 	lw	gp,16(sp)
  40aaac:	02202021 	move	a0,s1
  40aab0:	8f9983c8 	lw	t9,-31800(gp)
  40aab4:	0320f809 	jalr	t9
  40aab8:	02808821 	move	s1,s4
  40aabc:	8fbc0010 	lw	gp,16(sp)
  40aac0:	1620fff6 	bnez	s1,40aa9c <busybox_main+0x4f5c>
  40aac4:	8f9983c8 	lw	t9,-31800(gp)
  40aac8:	8e020010 	lw	v0,16(s0)
  40aacc:	26520001 	addiu	s2,s2,1
  40aad0:	00539821 	addu	s3,v0,s3
  40aad4:	ae600000 	sw	zero,0(s3)
  40aad8:	8e020004 	lw	v0,4(s0)
  40aadc:	0242102b 	sltu	v0,s2,v0
  40aae0:	5440ffea 	bnezl	v0,40aa8c <busybox_main+0x4f4c>
  40aae4:	8e020010 	lw	v0,16(s0)
  40aae8:	8fbf002c 	lw	ra,44(sp)
  40aaec:	ae000000 	sw	zero,0(s0)
  40aaf0:	ae00000c 	sw	zero,12(s0)
  40aaf4:	8fb40028 	lw	s4,40(sp)
  40aaf8:	8fb30024 	lw	s3,36(sp)
  40aafc:	8fb20020 	lw	s2,32(sp)
  40ab00:	8fb1001c 	lw	s1,28(sp)
  40ab04:	8fb00018 	lw	s0,24(sp)
  40ab08:	03e00008 	jr	ra
  40ab0c:	27bd0030 	addiu	sp,sp,48
  40ab10:	27bdffd0 	addiu	sp,sp,-48
  40ab14:	afb20020 	sw	s2,32(sp)
  40ab18:	3c120046 	lui	s2,0x46
  40ab1c:	afb1001c 	sw	s1,28(sp)
  40ab20:	8e515cc8 	lw	s1,23752(s2)
  40ab24:	3c1c0047 	lui	gp,0x47
  40ab28:	279cd250 	addiu	gp,gp,-11696
  40ab2c:	0091102a 	slt	v0,a0,s1
  40ab30:	afb00018 	sw	s0,24(sp)
  40ab34:	afbf002c 	sw	ra,44(sp)
  40ab38:	afb40028 	sw	s4,40(sp)
  40ab3c:	afb30024 	sw	s3,36(sp)
  40ab40:	afbc0010 	sw	gp,16(sp)
  40ab44:	14400015 	bnez	v0,40ab9c <busybox_main+0x505c>
  40ab48:	00808021 	move	s0,a0
  40ab4c:	24850010 	addiu	a1,a0,16
  40ab50:	24130018 	li	s3,24
  40ab54:	ae455cc8 	sw	a1,23752(s2)
  40ab58:	70b32802 	mul	a1,a1,s3
  40ab5c:	3c140046 	lui	s4,0x46
  40ab60:	8f998034 	lw	t9,-32716(gp)
  40ab64:	0320f809 	jalr	t9
  40ab68:	8e845c14 	lw	a0,23572(s4)
  40ab6c:	72332002 	mul	a0,s1,s3
  40ab70:	ae825c14 	sw	v0,23572(s4)
  40ab74:	00829821 	addu	s3,a0,v0
  40ab78:	8e435cc8 	lw	v1,23752(s2)
  40ab7c:	08102ae4 	j	40ab90 <busybox_main+0x5050>
  40ab80:	24020400 	li	v0,1024
  40ab84:	ae600010 	sw	zero,16(s3)
  40ab88:	26310001 	addiu	s1,s1,1
  40ab8c:	26730018 	addiu	s3,s3,24
  40ab90:	0223202a 	slt	a0,s1,v1
  40ab94:	5480fffb 	bnezl	a0,40ab84 <busybox_main+0x5044>
  40ab98:	a6620000 	sh	v0,0(s3)
  40ab9c:	3c130046 	lui	s3,0x46
  40aba0:	8e625ccc 	lw	v0,23756(s3)
  40aba4:	0202102a 	slt	v0,s0,v0
  40aba8:	1040000d 	beqz	v0,40abe0 <busybox_main+0x50a0>
  40abac:	24120018 	li	s2,24
  40abb0:	72129002 	mul	s2,s0,s2
  40abb4:	02008821 	move	s1,s0
  40abb8:	08102af4 	j	40abd0 <busybox_main+0x5090>
  40abbc:	3c140046 	lui	s4,0x46
  40abc0:	26310001 	addiu	s1,s1,1
  40abc4:	00922021 	addu	a0,a0,s2
  40abc8:	0c102a80 	jal	40aa00 <busybox_main+0x4ec0>
  40abcc:	26520018 	addiu	s2,s2,24
  40abd0:	8e625ccc 	lw	v0,23756(s3)
  40abd4:	0222102a 	slt	v0,s1,v0
  40abd8:	1440fff9 	bnez	v0,40abc0 <busybox_main+0x5080>
  40abdc:	8e845c14 	lw	a0,23572(s4)
  40abe0:	8fbf002c 	lw	ra,44(sp)
  40abe4:	ae705ccc 	sw	s0,23756(s3)
  40abe8:	8fb40028 	lw	s4,40(sp)
  40abec:	8fb30024 	lw	s3,36(sp)
  40abf0:	8fb20020 	lw	s2,32(sp)
  40abf4:	8fb1001c 	lw	s1,28(sp)
  40abf8:	8fb00018 	lw	s0,24(sp)
  40abfc:	03e00008 	jr	ra
  40ac00:	27bd0030 	addiu	sp,sp,48
  40ac04:	3c1c0047 	lui	gp,0x47
  40ac08:	279cd250 	addiu	gp,gp,-11696
  40ac0c:	27bdffe0 	addiu	sp,sp,-32
  40ac10:	8f9980c4 	lw	t9,-32572(gp)
  40ac14:	afbf001c 	sw	ra,28(sp)
  40ac18:	afb00018 	sw	s0,24(sp)
  40ac1c:	afbc0010 	sw	gp,16(sp)
  40ac20:	24040001 	li	a0,1
  40ac24:	0320f809 	jalr	t9
  40ac28:	24050014 	li	a1,20
  40ac2c:	8fbc0010 	lw	gp,16(sp)
  40ac30:	00408021 	move	s0,v0
  40ac34:	2402003d 	li	v0,61
  40ac38:	8f9980c4 	lw	t9,-32572(gp)
  40ac3c:	ae020004 	sw	v0,4(s0)
  40ac40:	2404003d 	li	a0,61
  40ac44:	0320f809 	jalr	t9
  40ac48:	24050004 	li	a1,4
  40ac4c:	8fbf001c 	lw	ra,28(sp)
  40ac50:	ae020010 	sw	v0,16(s0)
  40ac54:	02001021 	move	v0,s0
  40ac58:	8fb00018 	lw	s0,24(sp)
  40ac5c:	03e00008 	jr	ra
  40ac60:	27bd0020 	addiu	sp,sp,32
  40ac64:	27bdffd8 	addiu	sp,sp,-40
  40ac68:	afbf0024 	sw	ra,36(sp)
  40ac6c:	94820000 	lhu	v0,0(a0)
  40ac70:	30432000 	andi	v1,v0,0x2000
  40ac74:	5460fffd 	bnezl	v1,40ac6c <busybox_main+0x512c>
  40ac78:	8c840014 	lw	a0,20(a0)
  40ac7c:	30430002 	andi	v1,v0,0x2
  40ac80:	14600008 	bnez	v1,40aca4 <busybox_main+0x5164>
  40ac84:	8fbf0024 	lw	ra,36(sp)
  40ac88:	34420002 	ori	v0,v0,0x2
  40ac8c:	a4820000 	sh	v0,0(a0)
  40ac90:	0c102b01 	jal	40ac04 <busybox_main+0x50c4>
  40ac94:	afa40018 	sw	a0,24(sp)
  40ac98:	8fa40018 	lw	a0,24(sp)
  40ac9c:	ac820014 	sw	v0,20(a0)
  40aca0:	8fbf0024 	lw	ra,36(sp)
  40aca4:	8c820014 	lw	v0,20(a0)
  40aca8:	03e00008 	jr	ra
  40acac:	27bd0028 	addiu	sp,sp,40
  40acb0:	3c1c0047 	lui	gp,0x47
  40acb4:	279cd250 	addiu	gp,gp,-11696
  40acb8:	27bdffe0 	addiu	sp,sp,-32
  40acbc:	8f9980c4 	lw	t9,-32572(gp)
  40acc0:	afbf001c 	sw	ra,28(sp)
  40acc4:	afb00018 	sw	s0,24(sp)
  40acc8:	afbc0010 	sw	gp,16(sp)
  40accc:	00808021 	move	s0,a0
  40acd0:	24050001 	li	a1,1
  40acd4:	0320f809 	jalr	t9
  40acd8:	24040014 	li	a0,20
  40acdc:	3c040046 	lui	a0,0x46
  40ace0:	94845cf8 	lhu	a0,23800(a0)
  40ace4:	8fbf001c 	lw	ra,28(sp)
  40ace8:	ac500000 	sw	s0,0(v0)
  40acec:	8fb00018 	lw	s0,24(sp)
  40acf0:	a4440004 	sh	a0,4(v0)
  40acf4:	03e00008 	jr	ra
  40acf8:	27bd0020 	addiu	sp,sp,32
  40acfc:	27bdffd0 	addiu	sp,sp,-48
  40ad00:	afb10020 	sw	s1,32(sp)
  40ad04:	3c110046 	lui	s1,0x46
  40ad08:	afb0001c 	sw	s0,28(sp)
  40ad0c:	8e305cf4 	lw	s0,23796(s1)
  40ad10:	3c1c0047 	lui	gp,0x47
  40ad14:	8e020000 	lw	v0,0(s0)
  40ad18:	279cd250 	addiu	gp,gp,-11696
  40ad1c:	afb20024 	sw	s2,36(sp)
  40ad20:	afbf002c 	sw	ra,44(sp)
  40ad24:	afb30028 	sw	s3,40(sp)
  40ad28:	afbc0010 	sw	gp,16(sp)
  40ad2c:	14400005 	bnez	v0,40ad44 <busybox_main+0x5204>
  40ad30:	00809021 	move	s2,a0
  40ad34:	0c102b2c 	jal	40acb0 <busybox_main+0x5170>
  40ad38:	00002021 	move	a0,zero
  40ad3c:	ae020004 	sw	v0,4(s0)
  40ad40:	ae020000 	sw	v0,0(s0)
  40ad44:	8e225cf4 	lw	v0,23796(s1)
  40ad48:	3c100046 	lui	s0,0x46
  40ad4c:	8e035bc4 	lw	v1,23492(s0)
  40ad50:	8c440008 	lw	a0,8(v0)
  40ad54:	5083000b 	beql	a0,v1,40ad84 <busybox_main+0x5244>
  40ad58:	8e315cf4 	lw	s1,23796(s1)
  40ad5c:	ac430008 	sw	v1,8(v0)
  40ad60:	0c102b3f 	jal	40acfc <busybox_main+0x51bc>
  40ad64:	24040300 	li	a0,768
  40ad68:	8fbc0010 	lw	gp,16(sp)
  40ad6c:	8e045bc4 	lw	a0,23492(s0)
  40ad70:	8f998074 	lw	t9,-32652(gp)
  40ad74:	0320f809 	jalr	t9
  40ad78:	00409821 	move	s3,v0
  40ad7c:	ae620008 	sw	v0,8(s3)
  40ad80:	8e315cf4 	lw	s1,23796(s1)
  40ad84:	24042800 	li	a0,10240
  40ad88:	8e300004 	lw	s0,4(s1)
  40ad8c:	0c102b2c 	jal	40acb0 <busybox_main+0x5170>
  40ad90:	ae120000 	sw	s2,0(s0)
  40ad94:	ae020010 	sw	v0,16(s0)
  40ad98:	8fbf002c 	lw	ra,44(sp)
  40ad9c:	ae220004 	sw	v0,4(s1)
  40ada0:	8fb30028 	lw	s3,40(sp)
  40ada4:	02001021 	move	v0,s0
  40ada8:	8fb20024 	lw	s2,36(sp)
  40adac:	8fb10020 	lw	s1,32(sp)
  40adb0:	8fb0001c 	lw	s0,28(sp)
  40adb4:	03e00008 	jr	ra
  40adb8:	27bd0030 	addiu	sp,sp,48
  40adbc:	3c1c0047 	lui	gp,0x47
  40adc0:	279cd250 	addiu	gp,gp,-11696
  40adc4:	27bdffd8 	addiu	sp,sp,-40
  40adc8:	8f998038 	lw	t9,-32712(gp)
  40adcc:	afb1001c 	sw	s1,28(sp)
  40add0:	afb00018 	sw	s0,24(sp)
  40add4:	afbc0010 	sw	gp,16(sp)
  40add8:	afbf0024 	sw	ra,36(sp)
  40addc:	afb20020 	sw	s2,32(sp)
  40ade0:	00808821 	move	s1,a0
  40ade4:	0320f809 	jalr	t9
  40ade8:	00a08021 	move	s0,a1
  40adec:	2c420002 	sltiu	v0,v0,2
  40adf0:	14400013 	bnez	v0,40ae40 <busybox_main+0x5300>
  40adf4:	8fbc0010 	lw	gp,16(sp)
  40adf8:	8f998130 	lw	t9,-32464(gp)
  40adfc:	26040014 	addiu	a0,s0,20
  40ae00:	24022100 	li	v0,8448
  40ae04:	26120034 	addiu	s2,s0,52
  40ae08:	ae020000 	sw	v0,0(s0)
  40ae0c:	ae040008 	sw	a0,8(s0)
  40ae10:	02202821 	move	a1,s1
  40ae14:	24060001 	li	a2,1
  40ae18:	0320f809 	jalr	t9
  40ae1c:	ae12000c 	sw	s2,12(s0)
  40ae20:	8fbc0010 	lw	gp,16(sp)
  40ae24:	02402021 	move	a0,s2
  40ae28:	8f998130 	lw	t9,-32464(gp)
  40ae2c:	02202821 	move	a1,s1
  40ae30:	0320f809 	jalr	t9
  40ae34:	24060003 	li	a2,3
  40ae38:	08102b93 	j	40ae4c <busybox_main+0x530c>
  40ae3c:	8fbf0024 	lw	ra,36(sp)
  40ae40:	82220000 	lb	v0,0(s1)
  40ae44:	ae020000 	sw	v0,0(s0)
  40ae48:	8fbf0024 	lw	ra,36(sp)
  40ae4c:	02001021 	move	v0,s0
  40ae50:	8fb20020 	lw	s2,32(sp)
  40ae54:	8fb1001c 	lw	s1,28(sp)
  40ae58:	8fb00018 	lw	s0,24(sp)
  40ae5c:	03e00008 	jr	ra
  40ae60:	27bd0028 	addiu	sp,sp,40
  40ae64:	94820000 	lhu	v0,0(a0)
  40ae68:	3c1c0047 	lui	gp,0x47
  40ae6c:	27bdffd8 	addiu	sp,sp,-40
  40ae70:	279cd250 	addiu	gp,gp,-11696
  40ae74:	30430101 	andi	v1,v0,0x101
  40ae78:	afb00020 	sw	s0,32(sp)
  40ae7c:	afbf0024 	sw	ra,36(sp)
  40ae80:	afbc0010 	sw	gp,16(sp)
  40ae84:	1460001c 	bnez	v1,40aef8 <busybox_main+0x53b8>
  40ae88:	00808021 	move	s0,a0
  40ae8c:	ac80000c 	sw	zero,12(a0)
  40ae90:	ac800008 	sw	zero,8(a0)
  40ae94:	8c840010 	lw	a0,16(a0)
  40ae98:	10800012 	beqz	a0,40aee4 <busybox_main+0x53a4>
  40ae9c:	afa40018 	sw	a0,24(sp)
  40aea0:	80830000 	lb	v1,0(a0)
  40aea4:	10600010 	beqz	v1,40aee8 <busybox_main+0x53a8>
  40aea8:	3042fdff 	andi	v0,v0,0xfdff
  40aeac:	8f998684 	lw	t9,-31100(gp)
  40aeb0:	0320f809 	jalr	t9
  40aeb4:	27a50018 	addiu	a1,sp,24
  40aeb8:	ae020008 	sw	v0,8(s0)
  40aebc:	96020000 	lhu	v0,0(s0)
  40aec0:	30420200 	andi	v0,v0,0x200
  40aec4:	10400009 	beqz	v0,40aeec <busybox_main+0x53ac>
  40aec8:	ae03000c 	sw	v1,12(s0)
  40aecc:	0c1029fa 	jal	40a7e8 <busybox_main+0x4ca8>
  40aed0:	27a40018 	addiu	a0,sp,24
  40aed4:	8fa20018 	lw	v0,24(sp)
  40aed8:	80420000 	lb	v0,0(v0)
  40aedc:	10400004 	beqz	v0,40aef0 <busybox_main+0x53b0>
  40aee0:	96020000 	lhu	v0,0(s0)
  40aee4:	3042fdff 	andi	v0,v0,0xfdff
  40aee8:	a6020000 	sh	v0,0(s0)
  40aeec:	96020000 	lhu	v0,0(s0)
  40aef0:	34420100 	ori	v0,v0,0x100
  40aef4:	a6020000 	sh	v0,0(s0)
  40aef8:	8e050008 	lw	a1,8(s0)
  40aefc:	8e04000c 	lw	a0,12(s0)
  40af00:	8fbf0024 	lw	ra,36(sp)
  40af04:	00a01021 	move	v0,a1
  40af08:	00801821 	move	v1,a0
  40af0c:	8fb00020 	lw	s0,32(sp)
  40af10:	03e00008 	jr	ra
  40af14:	27bd0028 	addiu	sp,sp,40
  40af18:	27bdffe0 	addiu	sp,sp,-32
  40af1c:	afb00018 	sw	s0,24(sp)
  40af20:	afbf001c 	sw	ra,28(sp)
  40af24:	0c102b99 	jal	40ae64 <busybox_main+0x5324>
  40af28:	00808021 	move	s0,a0
  40af2c:	96020000 	lhu	v0,0(s0)
  40af30:	8fbf001c 	lw	ra,28(sp)
  40af34:	38424000 	xori	v0,v0,0x4000
  40af38:	30424201 	andi	v0,v0,0x4201
  40af3c:	8fb00018 	lw	s0,24(sp)
  40af40:	03e00008 	jr	ra
  40af44:	27bd0020 	addiu	sp,sp,32
  40af48:	27bdffd8 	addiu	sp,sp,-40
  40af4c:	3c1c0047 	lui	gp,0x47
  40af50:	279cd250 	addiu	gp,gp,-11696
  40af54:	afb0001c 	sw	s0,28(sp)
  40af58:	00808021 	move	s0,a0
  40af5c:	00a02021 	move	a0,a1
  40af60:	afb10020 	sw	s1,32(sp)
  40af64:	afbc0010 	sw	gp,16(sp)
  40af68:	afbf0024 	sw	ra,36(sp)
  40af6c:	0c1029f0 	jal	40a7c0 <busybox_main+0x4c80>
  40af70:	00a08821 	move	s1,a1
  40af74:	8e030004 	lw	v1,4(s0)
  40af78:	8fbc0010 	lw	gp,16(sp)
  40af7c:	0043001b 	divu	zero,v0,v1
  40af80:	006001f4 	teq	v1,zero,0x7
  40af84:	8e020010 	lw	v0,16(s0)
  40af88:	00001810 	mfhi	v1
  40af8c:	00031880 	sll	v1,v1,0x2
  40af90:	00431821 	addu	v1,v0,v1
  40af94:	08102bef 	j	40afbc <busybox_main+0x547c>
  40af98:	8c700000 	lw	s0,0(v1)
  40af9c:	2604001c 	addiu	a0,s0,28
  40afa0:	0320f809 	jalr	t9
  40afa4:	02202821 	move	a1,s1
  40afa8:	14400003 	bnez	v0,40afb8 <busybox_main+0x5478>
  40afac:	8fbc0010 	lw	gp,16(sp)
  40afb0:	08102bf2 	j	40afc8 <busybox_main+0x5488>
  40afb4:	02001021 	move	v0,s0
  40afb8:	8e100018 	lw	s0,24(s0)
  40afbc:	1600fff7 	bnez	s0,40af9c <busybox_main+0x545c>
  40afc0:	8f9984f0 	lw	t9,-31504(gp)
  40afc4:	00001021 	move	v0,zero
  40afc8:	8fbf0024 	lw	ra,36(sp)
  40afcc:	8fb10020 	lw	s1,32(sp)
  40afd0:	8fb0001c 	lw	s0,28(sp)
  40afd4:	03e00008 	jr	ra
  40afd8:	27bd0028 	addiu	sp,sp,40
  40afdc:	3c1c0047 	lui	gp,0x47
  40afe0:	27bdffc8 	addiu	sp,sp,-56
  40afe4:	279cd250 	addiu	gp,gp,-11696
  40afe8:	afb20020 	sw	s2,32(sp)
  40afec:	afb1001c 	sw	s1,28(sp)
  40aff0:	afb00018 	sw	s0,24(sp)
  40aff4:	afbc0010 	sw	gp,16(sp)
  40aff8:	afbf0034 	sw	ra,52(sp)
  40affc:	afb60030 	sw	s6,48(sp)
  40b000:	afb5002c 	sw	s5,44(sp)
  40b004:	afb40028 	sw	s4,40(sp)
  40b008:	afb30024 	sw	s3,36(sp)
  40b00c:	00808021 	move	s0,a0
  40b010:	0c102bd2 	jal	40af48 <busybox_main+0x5408>
  40b014:	00a09021 	move	s2,a1
  40b018:	00408821 	move	s1,v0
  40b01c:	14400059 	bnez	v0,40b184 <busybox_main+0x5644>
  40b020:	8fbc0010 	lw	gp,16(sp)
  40b024:	8e020000 	lw	v0,0(s0)
  40b028:	8e030004 	lw	v1,4(s0)
  40b02c:	24420001 	addiu	v0,v0,1
  40b030:	0043001b 	divu	zero,v0,v1
  40b034:	006001f4 	teq	v1,zero,0x7
  40b038:	ae020000 	sw	v0,0(s0)
  40b03c:	00001812 	mflo	v1
  40b040:	2c62000b 	sltiu	v0,v1,11
  40b044:	14400031 	bnez	v0,40b10c <busybox_main+0x55cc>
  40b048:	8f998038 	lw	t9,-32712(gp)
  40b04c:	8e020008 	lw	v0,8(s0)
  40b050:	24030005 	li	v1,5
  40b054:	1043002d 	beq	v0,v1,40b10c <busybox_main+0x55cc>
  40b058:	3c030045 	lui	v1,0x45
  40b05c:	00022080 	sll	a0,v0,0x2
  40b060:	2463c70c 	addiu	v1,v1,-14580
  40b064:	00831821 	addu	v1,a0,v1
  40b068:	8c710000 	lw	s1,0(v1)
  40b06c:	8f9980c4 	lw	t9,-32572(gp)
  40b070:	24420001 	addiu	v0,v0,1
  40b074:	ae020008 	sw	v0,8(s0)
  40b078:	02202021 	move	a0,s1
  40b07c:	0320f809 	jalr	t9
  40b080:	24050004 	li	a1,4
  40b084:	0040a821 	move	s5,v0
  40b088:	8fbc0010 	lw	gp,16(sp)
  40b08c:	08102c38 	j	40b0e0 <busybox_main+0x55a0>
  40b090:	0000a021 	move	s4,zero
  40b094:	00141080 	sll	v0,s4,0x2
  40b098:	00822021 	addu	a0,a0,v0
  40b09c:	08102c35 	j	40b0d4 <busybox_main+0x5594>
  40b0a0:	8c930000 	lw	s3,0(a0)
  40b0a4:	0c1029f0 	jal	40a7c0 <busybox_main+0x4c80>
  40b0a8:	8e760018 	lw	s6,24(s3)
  40b0ac:	0051001b 	divu	zero,v0,s1
  40b0b0:	022001f4 	teq	s1,zero,0x7
  40b0b4:	8fbc0010 	lw	gp,16(sp)
  40b0b8:	00001010 	mfhi	v0
  40b0bc:	00021080 	sll	v0,v0,0x2
  40b0c0:	02a21021 	addu	v0,s5,v0
  40b0c4:	8c430000 	lw	v1,0(v0)
  40b0c8:	ae630018 	sw	v1,24(s3)
  40b0cc:	ac530000 	sw	s3,0(v0)
  40b0d0:	02c09821 	move	s3,s6
  40b0d4:	5660fff3 	bnezl	s3,40b0a4 <busybox_main+0x5564>
  40b0d8:	2664001c 	addiu	a0,s3,28
  40b0dc:	26940001 	addiu	s4,s4,1
  40b0e0:	8e020004 	lw	v0,4(s0)
  40b0e4:	0282102b 	sltu	v0,s4,v0
  40b0e8:	1440ffea 	bnez	v0,40b094 <busybox_main+0x5554>
  40b0ec:	8e040010 	lw	a0,16(s0)
  40b0f0:	8f9983c8 	lw	t9,-31800(gp)
  40b0f4:	0320f809 	jalr	t9
  40b0f8:	00000000 	nop
  40b0fc:	8fbc0010 	lw	gp,16(sp)
  40b100:	ae110004 	sw	s1,4(s0)
  40b104:	ae150010 	sw	s5,16(s0)
  40b108:	8f998038 	lw	t9,-32712(gp)
  40b10c:	0320f809 	jalr	t9
  40b110:	02402021 	move	a0,s2
  40b114:	8fbc0010 	lw	gp,16(sp)
  40b118:	24440021 	addiu	a0,v0,33
  40b11c:	8f9980c4 	lw	t9,-32572(gp)
  40b120:	24050001 	li	a1,1
  40b124:	0320f809 	jalr	t9
  40b128:	24530001 	addiu	s3,v0,1
  40b12c:	8fbc0010 	lw	gp,16(sp)
  40b130:	02603021 	move	a2,s3
  40b134:	8f998770 	lw	t9,-30864(gp)
  40b138:	2444001c 	addiu	a0,v0,28
  40b13c:	02402821 	move	a1,s2
  40b140:	0320f809 	jalr	t9
  40b144:	00408821 	move	s1,v0
  40b148:	0c1029f0 	jal	40a7c0 <busybox_main+0x4c80>
  40b14c:	02402021 	move	a0,s2
  40b150:	8e030004 	lw	v1,4(s0)
  40b154:	0043001b 	divu	zero,v0,v1
  40b158:	006001f4 	teq	v1,zero,0x7
  40b15c:	8e020010 	lw	v0,16(s0)
  40b160:	00001810 	mfhi	v1
  40b164:	00031880 	sll	v1,v1,0x2
  40b168:	00431821 	addu	v1,v0,v1
  40b16c:	8c620000 	lw	v0,0(v1)
  40b170:	ae220018 	sw	v0,24(s1)
  40b174:	8e02000c 	lw	v0,12(s0)
  40b178:	ac710000 	sw	s1,0(v1)
  40b17c:	00539821 	addu	s3,v0,s3
  40b180:	ae13000c 	sw	s3,12(s0)
  40b184:	8fbf0034 	lw	ra,52(sp)
  40b188:	02201021 	move	v0,s1
  40b18c:	8fb60030 	lw	s6,48(sp)
  40b190:	8fb5002c 	lw	s5,44(sp)
  40b194:	8fb40028 	lw	s4,40(sp)
  40b198:	8fb30024 	lw	s3,36(sp)
  40b19c:	8fb20020 	lw	s2,32(sp)
  40b1a0:	8fb1001c 	lw	s1,28(sp)
  40b1a4:	8fb00018 	lw	s0,24(sp)
  40b1a8:	03e00008 	jr	ra
  40b1ac:	27bd0038 	addiu	sp,sp,56
  40b1b0:	27bdffd0 	addiu	sp,sp,-48
  40b1b4:	3c1c0047 	lui	gp,0x47
  40b1b8:	279cd250 	addiu	gp,gp,-11696
  40b1bc:	afb00018 	sw	s0,24(sp)
  40b1c0:	00808021 	move	s0,a0
  40b1c4:	00a02021 	move	a0,a1
  40b1c8:	afb30024 	sw	s3,36(sp)
  40b1cc:	afb20020 	sw	s2,32(sp)
  40b1d0:	afbc0010 	sw	gp,16(sp)
  40b1d4:	afbf002c 	sw	ra,44(sp)
  40b1d8:	afb40028 	sw	s4,40(sp)
  40b1dc:	afb1001c 	sw	s1,28(sp)
  40b1e0:	0c1029f0 	jal	40a7c0 <busybox_main+0x4c80>
  40b1e4:	00a09821 	move	s3,a1
  40b1e8:	8e120004 	lw	s2,4(s0)
  40b1ec:	8fbc0010 	lw	gp,16(sp)
  40b1f0:	0052001b 	divu	zero,v0,s2
  40b1f4:	024001f4 	teq	s2,zero,0x7
  40b1f8:	8e020010 	lw	v0,16(s0)
  40b1fc:	00009010 	mfhi	s2
  40b200:	00129080 	sll	s2,s2,0x2
  40b204:	08102ca0 	j	40b280 <busybox_main+0x5740>
  40b208:	00529021 	addu	s2,v0,s2
  40b20c:	2624001c 	addiu	a0,s1,28
  40b210:	0320f809 	jalr	t9
  40b214:	02602821 	move	a1,s3
  40b218:	14400018 	bnez	v0,40b27c <busybox_main+0x573c>
  40b21c:	8fbc0010 	lw	gp,16(sp)
  40b220:	8f998038 	lw	t9,-32712(gp)
  40b224:	02602021 	move	a0,s3
  40b228:	0320f809 	jalr	t9
  40b22c:	8e14000c 	lw	s4,12(s0)
  40b230:	00021027 	nor	v0,zero,v0
  40b234:	0054a021 	addu	s4,v0,s4
  40b238:	8e020000 	lw	v0,0(s0)
  40b23c:	8fbc0010 	lw	gp,16(sp)
  40b240:	2442ffff 	addiu	v0,v0,-1
  40b244:	ae020000 	sw	v0,0(s0)
  40b248:	8e220018 	lw	v0,24(s1)
  40b24c:	8f9983c8 	lw	t9,-31800(gp)
  40b250:	ae14000c 	sw	s4,12(s0)
  40b254:	02202021 	move	a0,s1
  40b258:	ae420000 	sw	v0,0(s2)
  40b25c:	8fbf002c 	lw	ra,44(sp)
  40b260:	8fb40028 	lw	s4,40(sp)
  40b264:	8fb30024 	lw	s3,36(sp)
  40b268:	8fb20020 	lw	s2,32(sp)
  40b26c:	8fb1001c 	lw	s1,28(sp)
  40b270:	8fb00018 	lw	s0,24(sp)
  40b274:	03200008 	jr	t9
  40b278:	27bd0030 	addiu	sp,sp,48
  40b27c:	26320018 	addiu	s2,s1,24
  40b280:	8e510000 	lw	s1,0(s2)
  40b284:	1620ffe1 	bnez	s1,40b20c <busybox_main+0x56cc>
  40b288:	8f9984f0 	lw	t9,-31504(gp)
  40b28c:	8fbf002c 	lw	ra,44(sp)
  40b290:	8fb40028 	lw	s4,40(sp)
  40b294:	8fb30024 	lw	s3,36(sp)
  40b298:	8fb20020 	lw	s2,32(sp)
  40b29c:	8fb1001c 	lw	s1,28(sp)
  40b2a0:	8fb00018 	lw	s0,24(sp)
  40b2a4:	03e00008 	jr	ra
  40b2a8:	27bd0030 	addiu	sp,sp,48
  40b2ac:	3c020046 	lui	v0,0x46
  40b2b0:	3c1c0047 	lui	gp,0x47
  40b2b4:	279cd250 	addiu	gp,gp,-11696
  40b2b8:	8c455bc4 	lw	a1,23492(v0)
  40b2bc:	3c020046 	lui	v0,0x46
  40b2c0:	27bdffe0 	addiu	sp,sp,-32
  40b2c4:	8f9980e8 	lw	t9,-32536(gp)
  40b2c8:	00803821 	move	a3,a0
  40b2cc:	84465cf8 	lh	a2,23800(v0)
  40b2d0:	3c040045 	lui	a0,0x45
  40b2d4:	afbc0010 	sw	gp,16(sp)
  40b2d8:	afbf001c 	sw	ra,28(sp)
  40b2dc:	0320f809 	jalr	t9
  40b2e0:	2484c2e0 	addiu	a0,a0,-15648
  40b2e4:	8fbc0010 	lw	gp,16(sp)
  40b2e8:	8f998458 	lw	t9,-31656(gp)
  40b2ec:	0320f809 	jalr	t9
  40b2f0:	24040001 	li	a0,1
  40b2f4:	27bdffc8 	addiu	sp,sp,-56
  40b2f8:	3c1c0047 	lui	gp,0x47
  40b2fc:	8fa30050 	lw	v1,80(sp)
  40b300:	279cd250 	addiu	gp,gp,-11696
  40b304:	afb4002c 	sw	s4,44(sp)
  40b308:	afb30028 	sw	s3,40(sp)
  40b30c:	afb20024 	sw	s2,36(sp)
  40b310:	afb10020 	sw	s1,32(sp)
  40b314:	afb0001c 	sw	s0,28(sp)
  40b318:	afbf0034 	sw	ra,52(sp)
  40b31c:	afb50030 	sw	s5,48(sp)
  40b320:	afbc0010 	sw	gp,16(sp)
  40b324:	0080a021 	move	s4,a0
  40b328:	00a09821 	move	s3,a1
  40b32c:	00c09021 	move	s2,a2
  40b330:	8fb1004c 	lw	s1,76(sp)
  40b334:	8fb00048 	lw	s0,72(sp)
  40b338:	1060001a 	beqz	v1,40b3a4 <busybox_main+0x5864>
  40b33c:	00c01021 	move	v0,a2
  40b340:	8f998134 	lw	t9,-32460(gp)
  40b344:	02202821 	move	a1,s1
  40b348:	0320f809 	jalr	t9
  40b34c:	02002021 	move	a0,s0
  40b350:	8fbc0010 	lw	gp,16(sp)
  40b354:	00402021 	move	a0,v0
  40b358:	8f998138 	lw	t9,-32456(gp)
  40b35c:	0320f809 	jalr	t9
  40b360:	0040a821 	move	s5,v0
  40b364:	8fbc0010 	lw	gp,16(sp)
  40b368:	02202821 	move	a1,s1
  40b36c:	8f99813c 	lw	t9,-32452(gp)
  40b370:	02002021 	move	a0,s0
  40b374:	00603821 	move	a3,v1
  40b378:	0320f809 	jalr	t9
  40b37c:	00403021 	move	a2,v0
  40b380:	14400007 	bnez	v0,40b3a0 <busybox_main+0x5860>
  40b384:	8fbc0010 	lw	gp,16(sp)
  40b388:	3c060045 	lui	a2,0x45
  40b38c:	02802021 	move	a0,s4
  40b390:	02602821 	move	a1,s3
  40b394:	24c6db44 	addiu	a2,a2,-9404
  40b398:	08102cff 	j	40b3fc <busybox_main+0x58bc>
  40b39c:	02a03821 	move	a3,s5
  40b3a0:	02401021 	move	v0,s2
  40b3a4:	80550000 	lb	s5,0(v0)
  40b3a8:	12a00004 	beqz	s5,40b3bc <busybox_main+0x587c>
  40b3ac:	24420001 	addiu	v0,v0,1
  40b3b0:	80430000 	lb	v1,0(v0)
  40b3b4:	5460fffc 	bnezl	v1,40b3a8 <busybox_main+0x5868>
  40b3b8:	80550000 	lb	s5,0(v0)
  40b3bc:	8f998410 	lw	t9,-31728(gp)
  40b3c0:	3c040045 	lui	a0,0x45
  40b3c4:	2484c2ec 	addiu	a0,a0,-15636
  40b3c8:	0320f809 	jalr	t9
  40b3cc:	02a02821 	move	a1,s5
  40b3d0:	10400014 	beqz	v0,40b424 <busybox_main+0x58e4>
  40b3d4:	8fbc0010 	lw	gp,16(sp)
  40b3d8:	8f998134 	lw	t9,-32460(gp)
  40b3dc:	02202821 	move	a1,s1
  40b3e0:	0320f809 	jalr	t9
  40b3e4:	02002021 	move	a0,s0
  40b3e8:	8fbc0010 	lw	gp,16(sp)
  40b3ec:	02802021 	move	a0,s4
  40b3f0:	02602821 	move	a1,s3
  40b3f4:	02403021 	move	a2,s2
  40b3f8:	00403821 	move	a3,v0
  40b3fc:	8f9987e0 	lw	t9,-30752(gp)
  40b400:	8fbf0034 	lw	ra,52(sp)
  40b404:	8fb50030 	lw	s5,48(sp)
  40b408:	8fb4002c 	lw	s4,44(sp)
  40b40c:	8fb30028 	lw	s3,40(sp)
  40b410:	8fb20024 	lw	s2,36(sp)
  40b414:	8fb10020 	lw	s1,32(sp)
  40b418:	8fb0001c 	lw	s0,28(sp)
  40b41c:	03200008 	jr	t9
  40b420:	27bd0038 	addiu	sp,sp,56
  40b424:	8f998410 	lw	t9,-31728(gp)
  40b428:	3c040045 	lui	a0,0x45
  40b42c:	2484c2f4 	addiu	a0,a0,-15628
  40b430:	0320f809 	jalr	t9
  40b434:	02a02821 	move	a1,s5
  40b438:	10400010 	beqz	v0,40b47c <busybox_main+0x593c>
  40b43c:	8fbc0010 	lw	gp,16(sp)
  40b440:	8f9987e0 	lw	t9,-30752(gp)
  40b444:	afb1004c 	sw	s1,76(sp)
  40b448:	afb00048 	sw	s0,72(sp)
  40b44c:	02802021 	move	a0,s4
  40b450:	02602821 	move	a1,s3
  40b454:	02403021 	move	a2,s2
  40b458:	8fbf0034 	lw	ra,52(sp)
  40b45c:	8fb50030 	lw	s5,48(sp)
  40b460:	8fb4002c 	lw	s4,44(sp)
  40b464:	8fb30028 	lw	s3,40(sp)
  40b468:	8fb20024 	lw	s2,36(sp)
  40b46c:	8fb10020 	lw	s1,32(sp)
  40b470:	8fb0001c 	lw	s0,28(sp)
  40b474:	03200008 	jr	t9
  40b478:	27bd0038 	addiu	sp,sp,56
  40b47c:	3c040045 	lui	a0,0x45
  40b480:	0c102cab 	jal	40b2ac <busybox_main+0x576c>
  40b484:	2484c6f0 	addiu	a0,a0,-14608
  40b488:	27bdffc0 	addiu	sp,sp,-64
  40b48c:	afb20034 	sw	s2,52(sp)
  40b490:	94920000 	lhu	s2,0(a0)
  40b494:	3c1c0047 	lui	gp,0x47
  40b498:	279cd250 	addiu	gp,gp,-11696
  40b49c:	32520101 	andi	s2,s2,0x101
  40b4a0:	24020001 	li	v0,1
  40b4a4:	afb0002c 	sw	s0,44(sp)
  40b4a8:	afbf003c 	sw	ra,60(sp)
  40b4ac:	afb30038 	sw	s3,56(sp)
  40b4b0:	afb10030 	sw	s1,48(sp)
  40b4b4:	afbc0020 	sw	gp,32(sp)
  40b4b8:	16420017 	bne	s2,v0,40b518 <busybox_main+0x59d8>
  40b4bc:	00808021 	move	s0,a0
  40b4c0:	3c020046 	lui	v0,0x46
  40b4c4:	8c445b74 	lw	a0,23412(v0)
  40b4c8:	3c110046 	lui	s1,0x46
  40b4cc:	0c102d22 	jal	40b488 <busybox_main+0x5948>
  40b4d0:	8e335b60 	lw	s3,23392(s1)
  40b4d4:	8e060008 	lw	a2,8(s0)
  40b4d8:	8e07000c 	lw	a3,12(s0)
  40b4dc:	afa60010 	sw	a2,16(sp)
  40b4e0:	02602021 	move	a0,s3
  40b4e4:	240500f0 	li	a1,240
  40b4e8:	00403021 	move	a2,v0
  40b4ec:	afa70014 	sw	a3,20(sp)
  40b4f0:	0c102cbd 	jal	40b2f4 <busybox_main+0x57b4>
  40b4f4:	afb20018 	sw	s2,24(sp)
  40b4f8:	8fbc0020 	lw	gp,32(sp)
  40b4fc:	8f998074 	lw	t9,-32652(gp)
  40b500:	0320f809 	jalr	t9
  40b504:	8e245b60 	lw	a0,23392(s1)
  40b508:	ae020010 	sw	v0,16(s0)
  40b50c:	96020000 	lhu	v0,0(s0)
  40b510:	34420100 	ori	v0,v0,0x100
  40b514:	a6020000 	sh	v0,0(s0)
  40b518:	8e020010 	lw	v0,16(s0)
  40b51c:	14400003 	bnez	v0,40b52c <busybox_main+0x59ec>
  40b520:	8fbf003c 	lw	ra,60(sp)
  40b524:	3c020045 	lui	v0,0x45
  40b528:	24423c34 	addiu	v0,v0,15412
  40b52c:	8fb30038 	lw	s3,56(sp)
  40b530:	8fb20034 	lw	s2,52(sp)
  40b534:	8fb10030 	lw	s1,48(sp)
  40b538:	8fb0002c 	lw	s0,44(sp)
  40b53c:	03e00008 	jr	ra
  40b540:	27bd0040 	addiu	sp,sp,64
  40b544:	3c1c0047 	lui	gp,0x47
  40b548:	279cd250 	addiu	gp,gp,-11696
  40b54c:	27bdffa0 	addiu	sp,sp,-96
  40b550:	8f998038 	lw	t9,-32712(gp)
  40b554:	afbf005c 	sw	ra,92(sp)
  40b558:	afa60038 	sw	a2,56(sp)
  40b55c:	afb40054 	sw	s4,84(sp)
  40b560:	afb00044 	sw	s0,68(sp)
  40b564:	afbc0018 	sw	gp,24(sp)
  40b568:	afb50058 	sw	s5,88(sp)
  40b56c:	afb30050 	sw	s3,80(sp)
  40b570:	afb2004c 	sw	s2,76(sp)
  40b574:	afb10048 	sw	s1,72(sp)
  40b578:	00a0a021 	move	s4,a1
  40b57c:	0320f809 	jalr	t9
  40b580:	00808021 	move	s0,a0
  40b584:	8fbc0018 	lw	gp,24(sp)
  40b588:	00021040 	sll	v0,v0,0x1
  40b58c:	8f998140 	lw	t9,-32448(gp)
  40b590:	02002021 	move	a0,s0
  40b594:	0320f809 	jalr	t9
  40b598:	24450003 	addiu	a1,v0,3
  40b59c:	8fa60038 	lw	a2,56(sp)
  40b5a0:	afa20020 	sw	v0,32(sp)
  40b5a4:	acc20000 	sw	v0,0(a2)
  40b5a8:	82820003 	lb	v0,3(s4)
  40b5ac:	a3a00027 	sb	zero,39(sp)
  40b5b0:	a3a20025 	sb	v0,37(sp)
  40b5b4:	a3a20024 	sb	v0,36(sp)
  40b5b8:	3c020046 	lui	v0,0x46
  40b5bc:	8c445b88 	lw	a0,23432(v0)
  40b5c0:	0c102d22 	jal	40b488 <busybox_main+0x5948>
  40b5c4:	a3a00026 	sb	zero,38(sp)
  40b5c8:	80420000 	lb	v0,0(v0)
  40b5cc:	14400003 	bnez	v0,40b5dc <busybox_main+0x5a9c>
  40b5d0:	8fbc0018 	lw	gp,24(sp)
  40b5d4:	2402000a 	li	v0,10
  40b5d8:	a3a20026 	sb	v0,38(sp)
  40b5dc:	8e830000 	lw	v1,0(s4)
  40b5e0:	24022100 	li	v0,8448
  40b5e4:	3063ff00 	andi	v1,v1,0xff00
  40b5e8:	1462003d 	bne	v1,v0,40b6e0 <busybox_main+0x5ba0>
  40b5ec:	83a20024 	lb	v0,36(sp)
  40b5f0:	08102db2 	j	40b6c8 <busybox_main+0x5b88>
  40b5f4:	00008821 	move	s1,zero
  40b5f8:	02002021 	move	a0,s0
  40b5fc:	0320f809 	jalr	t9
  40b600:	27a50026 	addiu	a1,sp,38
  40b604:	00409821 	move	s3,v0
  40b608:	00409021 	move	s2,v0
  40b60c:	8ea25cc4 	lw	v0,23748(s5)
  40b610:	10400003 	beqz	v0,40b620 <busybox_main+0x5ae0>
  40b614:	8fbc0018 	lw	gp,24(sp)
  40b618:	08102d89 	j	40b624 <busybox_main+0x5ae4>
  40b61c:	8e84000c 	lw	a0,12(s4)
  40b620:	8e840008 	lw	a0,8(s4)
  40b624:	8f998514 	lw	t9,-31468(gp)
  40b628:	afa00010 	sw	zero,16(sp)
  40b62c:	02002821 	move	a1,s0
  40b630:	24060001 	li	a2,1
  40b634:	0320f809 	jalr	t9
  40b638:	27a70028 	addiu	a3,sp,40
  40b63c:	1440000d 	bnez	v0,40b674 <busybox_main+0x5b34>
  40b640:	8fbc0018 	lw	gp,24(sp)
  40b644:	8fa20028 	lw	v0,40(sp)
  40b648:	0262182a 	slt	v1,s3,v0
  40b64c:	5460000a 	bnezl	v1,40b678 <busybox_main+0x5b38>
  40b650:	afb3002c 	sw	s3,44(sp)
  40b654:	00409021 	move	s2,v0
  40b658:	8fa2002c 	lw	v0,44(sp)
  40b65c:	1440000c 	bnez	v0,40b690 <busybox_main+0x5b50>
  40b660:	8f998770 	lw	t9,-30864(gp)
  40b664:	24020001 	li	v0,1
  40b668:	26520001 	addiu	s2,s2,1
  40b66c:	08102da4 	j	40b690 <busybox_main+0x5b50>
  40b670:	afa2002c 	sw	v0,44(sp)
  40b674:	afb3002c 	sw	s3,44(sp)
  40b678:	02131021 	addu	v0,s0,s3
  40b67c:	80420000 	lb	v0,0(v0)
  40b680:	10400003 	beqz	v0,40b690 <busybox_main+0x5b50>
  40b684:	8f998770 	lw	t9,-30864(gp)
  40b688:	26730001 	addiu	s3,s3,1
  40b68c:	afb3002c 	sw	s3,44(sp)
  40b690:	8fa40020 	lw	a0,32(sp)
  40b694:	02002821 	move	a1,s0
  40b698:	0320f809 	jalr	t9
  40b69c:	02403021 	move	a2,s2
  40b6a0:	8fa20020 	lw	v0,32(sp)
  40b6a4:	27a40020 	addiu	a0,sp,32
  40b6a8:	00529021 	addu	s2,v0,s2
  40b6ac:	0c102a19 	jal	40a864 <busybox_main+0x4d24>
  40b6b0:	a2400000 	sb	zero,0(s2)
  40b6b4:	8fa2002c 	lw	v0,44(sp)
  40b6b8:	8fbc0018 	lw	gp,24(sp)
  40b6bc:	02028021 	addu	s0,s0,v0
  40b6c0:	08102db3 	j	40b6cc <busybox_main+0x5b8c>
  40b6c4:	26310001 	addiu	s1,s1,1
  40b6c8:	3c150046 	lui	s5,0x46
  40b6cc:	82020000 	lb	v0,0(s0)
  40b6d0:	1440ffc9 	bnez	v0,40b5f8 <busybox_main+0x5ab8>
  40b6d4:	8f9984b4 	lw	t9,-31564(gp)
  40b6d8:	08102e0b 	j	40b82c <busybox_main+0x5cec>
  40b6dc:	8fbf005c 	lw	ra,92(sp)
  40b6e0:	10400009 	beqz	v0,40b708 <busybox_main+0x5bc8>
  40b6e4:	00008821 	move	s1,zero
  40b6e8:	08102dc7 	j	40b71c <busybox_main+0x5bdc>
  40b6ec:	24030020 	li	v1,32
  40b6f0:	26100001 	addiu	s0,s0,1
  40b6f4:	a0430000 	sb	v1,0(v0)
  40b6f8:	a0400001 	sb	zero,1(v0)
  40b6fc:	24420002 	addiu	v0,v0,2
  40b700:	afa20020 	sw	v0,32(sp)
  40b704:	26310001 	addiu	s1,s1,1
  40b708:	82030000 	lb	v1,0(s0)
  40b70c:	1460fff8 	bnez	v1,40b6f0 <busybox_main+0x5bb0>
  40b710:	8fa20020 	lw	v0,32(sp)
  40b714:	08102e0b 	j	40b82c <busybox_main+0x5cec>
  40b718:	8fbf005c 	lw	ra,92(sp)
  40b71c:	1043003d 	beq	v0,v1,40b814 <busybox_main+0x5cd4>
  40b720:	3c030046 	lui	v1,0x46
  40b724:	8c635cc4 	lw	v1,23748(v1)
  40b728:	5060000f 	beqzl	v1,40b768 <busybox_main+0x5c28>
  40b72c:	8fa20020 	lw	v0,32(sp)
  40b730:	8f8386e4 	lw	v1,-31004(gp)
  40b734:	00021040 	sll	v0,v0,0x1
  40b738:	8c630000 	lw	v1,0(v1)
  40b73c:	00621021 	addu	v0,v1,v0
  40b740:	84420000 	lh	v0,0(v0)
  40b744:	8f8383e0 	lw	v1,-31776(gp)
  40b748:	a3a20024 	sb	v0,36(sp)
  40b74c:	83a20025 	lb	v0,37(sp)
  40b750:	8c630000 	lw	v1,0(v1)
  40b754:	00021040 	sll	v0,v0,0x1
  40b758:	00621021 	addu	v0,v1,v0
  40b75c:	84420000 	lh	v0,0(v0)
  40b760:	a3a20025 	sb	v0,37(sp)
  40b764:	8fa20020 	lw	v0,32(sp)
  40b768:	80510000 	lb	s1,0(v0)
  40b76c:	08102de1 	j	40b784 <busybox_main+0x5c44>
  40b770:	0011882b 	sltu	s1,zero,s1
  40b774:	a0400000 	sb	zero,0(v0)
  40b778:	24420001 	addiu	v0,v0,1
  40b77c:	afa20020 	sw	v0,32(sp)
  40b780:	26310001 	addiu	s1,s1,1
  40b784:	8f9983d4 	lw	t9,-31788(gp)
  40b788:	8fa40020 	lw	a0,32(sp)
  40b78c:	0320f809 	jalr	t9
  40b790:	27a50024 	addiu	a1,sp,36
  40b794:	1440fff7 	bnez	v0,40b774 <busybox_main+0x5c34>
  40b798:	8fbc0018 	lw	gp,24(sp)
  40b79c:	08102e0b 	j	40b82c <busybox_main+0x5cec>
  40b7a0:	8fbf005c 	lw	ra,92(sp)
  40b7a4:	82020000 	lb	v0,0(s0)
  40b7a8:	00022840 	sll	a1,v0,0x1
  40b7ac:	00652821 	addu	a1,v1,a1
  40b7b0:	94a50000 	lhu	a1,0(a1)
  40b7b4:	30a50020 	andi	a1,a1,0x20
  40b7b8:	54a0fffa 	bnezl	a1,40b7a4 <busybox_main+0x5c64>
  40b7bc:	26100001 	addiu	s0,s0,1
  40b7c0:	1040001a 	beqz	v0,40b82c <busybox_main+0x5cec>
  40b7c4:	8fbf005c 	lw	ra,92(sp)
  40b7c8:	08102df7 	j	40b7dc <busybox_main+0x5c9c>
  40b7cc:	26310001 	addiu	s1,s1,1
  40b7d0:	24420001 	addiu	v0,v0,1
  40b7d4:	afa20020 	sw	v0,32(sp)
  40b7d8:	26100001 	addiu	s0,s0,1
  40b7dc:	82030000 	lb	v1,0(s0)
  40b7e0:	10600008 	beqz	v1,40b804 <busybox_main+0x5cc4>
  40b7e4:	8fa20020 	lw	v0,32(sp)
  40b7e8:	8c860000 	lw	a2,0(a0)
  40b7ec:	00032840 	sll	a1,v1,0x1
  40b7f0:	00c52821 	addu	a1,a2,a1
  40b7f4:	94a50000 	lhu	a1,0(a1)
  40b7f8:	30a50020 	andi	a1,a1,0x20
  40b7fc:	50a0fff4 	beqzl	a1,40b7d0 <busybox_main+0x5c90>
  40b800:	a0430000 	sb	v1,0(v0)
  40b804:	a0400000 	sb	zero,0(v0)
  40b808:	24420001 	addiu	v0,v0,1
  40b80c:	08102e06 	j	40b818 <busybox_main+0x5cd8>
  40b810:	afa20020 	sw	v0,32(sp)
  40b814:	8f8487bc 	lw	a0,-30788(gp)
  40b818:	82020000 	lb	v0,0(s0)
  40b81c:	10400003 	beqz	v0,40b82c <busybox_main+0x5cec>
  40b820:	8fbf005c 	lw	ra,92(sp)
  40b824:	08102dea 	j	40b7a8 <busybox_main+0x5c68>
  40b828:	8c830000 	lw	v1,0(a0)
  40b82c:	02201021 	move	v0,s1
  40b830:	8fb50058 	lw	s5,88(sp)
  40b834:	8fb40054 	lw	s4,84(sp)
  40b838:	8fb30050 	lw	s3,80(sp)
  40b83c:	8fb2004c 	lw	s2,76(sp)
  40b840:	8fb10048 	lw	s1,72(sp)
  40b844:	8fb00044 	lw	s0,68(sp)
  40b848:	03e00008 	jr	ra
  40b84c:	27bd0060 	addiu	sp,sp,96
  40b850:	27bdffd0 	addiu	sp,sp,-48
  40b854:	afb20024 	sw	s2,36(sp)
  40b858:	3c120046 	lui	s2,0x46
  40b85c:	8e425d40 	lw	v0,23872(s2)
  40b860:	3c1c0047 	lui	gp,0x47
  40b864:	24430010 	addiu	v1,v0,16
  40b868:	279cd250 	addiu	gp,gp,-11696
  40b86c:	0083182b 	sltu	v1,a0,v1
  40b870:	afb10020 	sw	s1,32(sp)
  40b874:	afbf002c 	sw	ra,44(sp)
  40b878:	afb30028 	sw	s3,40(sp)
  40b87c:	afb0001c 	sw	s0,28(sp)
  40b880:	afbc0010 	sw	gp,16(sp)
  40b884:	14600007 	bnez	v1,40b8a4 <busybox_main+0x5d64>
  40b888:	00808821 	move	s1,a0
  40b88c:	8c420004 	lw	v0,4(v0)
  40b890:	0082102b 	sltu	v0,a0,v0
  40b894:	10400003 	beqz	v0,40b8a4 <busybox_main+0x5d64>
  40b898:	00808021 	move	s0,a0
  40b89c:	08102e47 	j	40b91c <busybox_main+0x5ddc>
  40b8a0:	24130002 	li	s3,2
  40b8a4:	3c040045 	lui	a0,0x45
  40b8a8:	0c102cab 	jal	40b2ac <busybox_main+0x576c>
  40b8ac:	2484c7e8 	addiu	a0,a0,-14360
  40b8b0:	30422002 	andi	v0,v0,0x2002
  40b8b4:	54530010 	bnel	v0,s3,40b8f8 <busybox_main+0x5db8>
  40b8b8:	96020000 	lhu	v0,0(s0)
  40b8bc:	0c102b19 	jal	40ac64 <busybox_main+0x5124>
  40b8c0:	02002021 	move	a0,s0
  40b8c4:	0c102a96 	jal	40aa58 <busybox_main+0x4f18>
  40b8c8:	00402021 	move	a0,v0
  40b8cc:	8fbc0010 	lw	gp,16(sp)
  40b8d0:	8e020014 	lw	v0,20(s0)
  40b8d4:	8f9983c8 	lw	t9,-31800(gp)
  40b8d8:	0320f809 	jalr	t9
  40b8dc:	8c440010 	lw	a0,16(v0)
  40b8e0:	8fbc0010 	lw	gp,16(sp)
  40b8e4:	8f9983c8 	lw	t9,-31800(gp)
  40b8e8:	0320f809 	jalr	t9
  40b8ec:	8e040014 	lw	a0,20(s0)
  40b8f0:	8fbc0010 	lw	gp,16(sp)
  40b8f4:	96020000 	lhu	v0,0(s0)
  40b8f8:	30420800 	andi	v0,v0,0x800
  40b8fc:	10400003 	beqz	v0,40b90c <busybox_main+0x5dcc>
  40b900:	8f9983c8 	lw	t9,-31800(gp)
  40b904:	0320f809 	jalr	t9
  40b908:	8e040014 	lw	a0,20(s0)
  40b90c:	0c102a80 	jal	40aa00 <busybox_main+0x4ec0>
  40b910:	02002021 	move	a0,s0
  40b914:	8fbc0010 	lw	gp,16(sp)
  40b918:	26100018 	addiu	s0,s0,24
  40b91c:	8e425d40 	lw	v0,23872(s2)
  40b920:	8c430004 	lw	v1,4(v0)
  40b924:	0203182b 	sltu	v1,s0,v1
  40b928:	5460ffe1 	bnezl	v1,40b8b0 <busybox_main+0x5d70>
  40b92c:	96020000 	lhu	v0,0(s0)
  40b930:	ac510004 	sw	s1,4(v0)
  40b934:	8c430008 	lw	v1,8(v0)
  40b938:	10600006 	beqz	v1,40b954 <busybox_main+0x5e14>
  40b93c:	8fbf002c 	lw	ra,44(sp)
  40b940:	8c450004 	lw	a1,4(v0)
  40b944:	24440010 	addiu	a0,v0,16
  40b948:	50a4fffa 	beql	a1,a0,40b934 <busybox_main+0x5df4>
  40b94c:	00601021 	move	v0,v1
  40b950:	8fbf002c 	lw	ra,44(sp)
  40b954:	ae425d40 	sw	v0,23872(s2)
